(lp0
(i__main__
Pose
p1
(dp2
S'y'
p3
(lp4
F30.019804000854492
aF30.036521911621094
aF30.018943786621094
aF30.0194091796875
aF30.017610549926758
aF30.019210815429688
aF30.03512954711914
aF30.03512954711914
aF30.04354476928711
aF30.046253204345703
aF30.041288375854492
aF30.046920776367188
aF30.046920776367188
aF30.033924102783203
aF30.033912658691406
aF30.015817642211914
aF30.007455825805664
aF30.00146484375
aF29.994779586791992
aF29.989238739013672
aF29.983196258544922
aF29.97714614868164
aF29.972454071044922
aF29.96863555908203
aF29.9704532623291
aF29.971542358398438
aF29.974328994750977
aF29.980064392089844
aF29.984901428222656
aF29.98575210571289
aF29.985618591308594
aF29.9853458404541
aF29.986860275268555
aF29.995519638061523
aF29.995519638061523
aF30.00646209716797
aF29.998376846313477
aF29.995407104492188
aF29.984703063964844
aF29.980762481689453
aF29.973905563354492
aF29.976808547973633
aF29.978174209594727
aF29.975709915161133
aF29.97229766845703
aF29.966894149780273
aF29.963106155395508
aF29.948715209960938
aF29.912433624267578
aF29.930952072143555
aF29.926715850830078
aF29.949121475219727
aF29.9593505859375
aF29.948312759399414
aF29.947710037231445
aF29.94821548461914
aF29.944589614868164
aF29.953031539916992
aF29.913253784179688
aF29.902877807617188
aF29.8934268951416
aF29.865617752075195
aF29.859325408935547
aF29.86355209350586
aF29.85553741455078
aF29.84661865234375
aF29.832395553588867
aF29.81531524658203
aF29.79352569580078
aF29.768136978149414
aF29.742294311523438
aF29.721742630004883
aF29.718496322631836
aF29.713525772094727
aF29.70452880859375
aF29.694002151489258
aF29.678865432739258
aF29.64898681640625
aF29.628965377807617
aF29.61752700805664
aF29.61328887939453
aF29.613279342651367
aF29.6038818359375
aF29.604198455810547
aF29.604351043701172
aF29.605609893798828
aF29.6042537689209
aF29.593017578125
aF29.599153518676758
aF29.602149963378906
aF29.614212036132812
aF29.614181518554688
aF29.618425369262695
aF29.637224197387695
aF29.639175415039062
aF29.64038848876953
aF29.63623046875
aF29.62887191772461
aF29.63530731201172
aF29.62920570373535
aF29.622093200683594
aF29.617876052856445
aF29.605714797973633
aF29.59747314453125
aF29.594627380371094
aF29.588584899902344
aF29.589677810668945
aF29.58474349975586
aF29.573823928833008
aF29.571001052856445
aF29.561542510986328
aF29.548742294311523
aF29.540176391601562
aF29.530424118041992
aF29.51435089111328
aF29.509122848510742
aF29.50678253173828
aF29.503684997558594
aF29.48855972290039
aF29.48461151123047
aF29.48299789428711
aF29.47081756591797
aF29.46426010131836
aF29.457796096801758
aF29.449289321899414
aF29.436006546020508
aF29.43539810180664
aF29.404930114746094
aF29.379350662231445
aF29.370615005493164
aF29.358722686767578
aF29.33785629272461
aF29.3160457611084
aF29.29703140258789
aF29.295019149780273
aF29.27042007446289
aF29.275999069213867
aF29.270774841308594
aF29.268661499023438
aF29.273420333862305
aF29.278654098510742
aF29.283447265625
aF29.2884464263916
aF29.285856246948242
aF29.3162841796875
aF29.313085556030273
aF29.323223114013672
aF29.34212875366211
aF29.368789672851562
aF29.385221481323242
aF29.39743423461914
aF29.402135848999023
aF29.406660079956055
aF29.409435272216797
aF29.413209915161133
aF29.414419174194336
aF29.41112518310547
aF29.40643310546875
aF29.402605056762695
aF29.393203735351562
aF29.383241653442383
aF29.37383460998535
aF29.355567932128906
aF29.341218948364258
aF29.329137802124023
aF29.303693771362305
aF29.294967651367188
aF29.283226013183594
aF29.267549514770508
aF29.25322914123535
aF29.243837356567383
aF29.226057052612305
aF29.221393585205078
aF29.21280288696289
aF29.201866149902344
aF29.190786361694336
aF29.169404983520508
aF29.1571102142334
aF29.143938064575195
aF29.12314224243164
aF29.124731063842773
aF29.128623962402344
aF29.128623962402344
aF29.13243865966797
aF29.134965896606445
aF29.13666534423828
aF29.140539169311523
aF29.145639419555664
aF29.1540584564209
aF29.157155990600586
aF29.163684844970703
aF29.168540954589844
aF29.169898986816406
aF29.17386245727539
aF29.18146324157715
aF29.184680938720703
aF29.199302673339844
aF29.20502281188965
aF29.206501007080078
aF29.212339401245117
aF29.219409942626953
aF29.234102249145508
aF29.258501052856445
aF29.272418975830078
aF29.291397094726562
aF29.31954574584961
aF29.357755661010742
aF29.384672164916992
aF29.424394607543945
aF29.45208168029785
aF29.480859756469727
aF29.52950668334961
aF29.569316864013672
aF29.61477279663086
aF29.656705856323242
aF29.705894470214844
aF29.71747398376465
aF29.713329315185547
aF29.714902877807617
aF29.72287368774414
aF29.73569107055664
aF29.752155303955078
aF29.767589569091797
aF29.778888702392578
aF29.77739715576172
aF29.777822494506836
aF29.780376434326172
aF29.784666061401367
aF29.7904052734375
aF29.798513412475586
aF29.7955265045166
aF29.80426025390625
aF29.810497283935547
aF29.825536727905273
aF29.853137969970703
aF29.86648941040039
aF29.889490127563477
aF29.911663055419922
aF29.938255310058594
aF29.964879989624023
aF29.982446670532227
aF30.0208797454834
aF30.080415725708008
aF30.153396606445312
aF30.190462112426758
aF30.23047637939453
aF30.294288635253906
aF30.380640029907227
aF30.45623779296875
aF30.525819778442383
aF30.569557189941406
aF30.635156631469727
aF30.67733383178711
aF30.742530822753906
aF30.764799118041992
aF30.83148956298828
aF30.896955490112305
aF30.942312240600586
aF30.985422134399414
aF31.029111862182617
aF31.098257064819336
aF31.165395736694336
aF31.203447341918945
aF31.266984939575195
aF31.33321762084961
aF31.37334442138672
aF31.418630599975586
aF31.462827682495117
aF31.547780990600586
aF31.590688705444336
aF31.675771713256836
aF31.723955154418945
aF31.803695678710938
aF31.89483642578125
aF31.936866760253906
aF32.00062561035156
aF32.07197570800781
aF32.1199836730957
aF32.188289642333984
aF32.210838317871094
aF32.254783630371094
aF32.314090728759766
aF32.363609313964844
aF32.44932556152344
aF32.53453063964844
aF32.585391998291016
aF32.67478942871094
aF32.746219635009766
aF32.79568099975586
aF32.868507385253906
aF32.94245529174805
aF33.02281188964844
aF33.077640533447266
aF33.158538818359375
aF33.246131896972656
aF33.277435302734375
aF33.405635833740234
aF33.50135803222656
aF33.565223693847656
aF33.69175720214844
aF33.78014373779297
aF33.855735778808594
aF33.90959930419922
aF34.02605056762695
aF34.089935302734375
aF34.177669525146484
aF34.23506164550781
aF34.311737060546875
aF34.366477966308594
aF34.45227813720703
aF34.54124069213867
aF34.5998649597168
aF34.686038970947266
aF34.77422332763672
aF34.864688873291016
aF34.924556732177734
aF35.01435089111328
aF35.10624313354492
aF35.164344787597656
aF35.246131896972656
aF35.29646301269531
aF35.32853317260742
aF35.34981918334961
aF35.36723709106445
aF35.38878631591797
aF35.39289093017578
aF35.39215087890625
aF35.39569091796875
aF35.397804260253906
aF35.401344299316406
aF35.403968811035156
aF35.40667724609375
aF35.425254821777344
aF35.45079040527344
aF35.47507858276367
aF35.497047424316406
aF35.517784118652344
aF35.554039001464844
aF35.595558166503906
aF35.62410354614258
aF35.6543083190918
aF35.685001373291016
aF35.727508544921875
aF35.792991638183594
aF35.842376708984375
aF35.87495422363281
aF35.921878814697266
aF35.989501953125
aF36.050750732421875
aF36.09553146362305
aF36.16190719604492
aF36.25054931640625
aF36.29949188232422
aF36.382720947265625
aF36.43954849243164
aF36.518882751464844
aF36.6260986328125
aF36.710716247558594
aF36.7692756652832
aF36.83831024169922
aF36.982032775878906
aF37.1578254699707
aF37.227378845214844
aF37.2982063293457
aF37.370765686035156
aF37.48685836791992
aF37.5622444152832
aF37.675113677978516
aF37.789268493652344
aF37.866661071777344
aF37.98141098022461
aF38.09418869018555
aF38.172550201416016
aF38.293067932128906
aF38.405967712402344
aF38.4879150390625
aF38.56182098388672
aF38.71263885498047
aF38.786067962646484
aF38.896175384521484
aF39.00568771362305
aF39.07768249511719
aF39.18592834472656
aF39.29533767700195
aF39.367042541503906
aF39.5102424621582
aF39.616363525390625
aF39.690731048583984
aF39.80329513549805
aF39.94902801513672
aF40.09721374511719
aF40.134193420410156
aF40.20896530151367
aF40.32090377807617
aF40.39360427856445
aF40.4931526184082
aF40.5996208190918
aF40.710968017578125
aF40.78703689575195
aF40.843509674072266
aF40.8788948059082
aF40.908809661865234
aF40.943504333496094
aF41.01705551147461
aF41.096099853515625
aF41.14932632446289
aF41.2269401550293
aF41.331031799316406
aF41.358863830566406
aF41.438175201416016
aF41.49150085449219
aF41.56035232543945
aF41.630672454833984
aF41.67991638183594
aF41.728172302246094
aF41.77522277832031
aF41.8472785949707
aF41.920074462890625
aF41.967498779296875
aF42.020992279052734
aF42.070064544677734
aF42.147647857666016
aF42.22577667236328
aF42.27931594848633
aF42.337432861328125
aF42.39253234863281
aF42.450401306152344
aF42.50856399536133
aF42.663455963134766
aF42.72344207763672
aF42.811378479003906
aF42.864105224609375
aF42.912986755371094
aF43.00422286987305
aF43.024959564208984
aF43.09125518798828
aF43.147464752197266
aF43.18382263183594
aF43.24236297607422
aF43.28034210205078
aF43.33753967285156
aF43.388668060302734
aF43.41969680786133
aF43.473209381103516
aF43.53754425048828
aF43.6071662902832
aF43.65631866455078
aF43.7281608581543
aF43.80683135986328
aF43.85859298706055
aF43.986846923828125
aF44.011810302734375
aF44.0599250793457
aF44.135257720947266
aF44.2066764831543
aF44.25715637207031
aF44.33318328857422
aF44.40595245361328
aF44.457557678222656
aF44.54853439331055
aF44.641258239746094
aF44.70387268066406
aF44.796287536621094
aF44.887691497802734
aF44.946712493896484
aF45.036582946777344
aF45.153472900390625
aF45.18301773071289
aF45.271644592285156
aF45.36172866821289
aF45.42255783081055
aF45.51313018798828
aF45.605289459228516
aF45.66421890258789
aF45.751983642578125
aF45.840885162353516
aF45.90119552612305
aF45.989112854003906
aF46.079166412353516
aF46.141075134277344
aF46.30500793457031
aF46.375
aF46.47599792480469
aF46.538516998291016
aF46.635780334472656
aF46.712398529052734
aF46.77052688598633
aF46.91575241088867
aF47.04922866821289
aF47.144535064697266
aF47.302520751953125
aF47.397918701171875
aF47.463199615478516
aF47.529273986816406
aF47.62616729736328
aF47.72890090942383
aF47.775672912597656
aF47.86222839355469
aF47.94916534423828
aF47.99611282348633
aF48.080196380615234
aF48.17194366455078
aF48.21916198730469
aF48.31141662597656
aF48.403099060058594
aF48.48578643798828
aF48.54314041137695
aF48.63505935668945
aF48.68535232543945
aF48.779937744140625
aF48.8763427734375
aF48.9373664855957
aF49.03474044799805
aF49.096839904785156
aF49.1865119934082
aF49.248592376708984
aF49.308074951171875
aF49.40316390991211
aF49.498165130615234
aF49.565834045410156
aF49.63038635253906
aF49.72066879272461
aF49.78125
aF49.864646911621094
aF49.928165435791016
aF49.97100067138672
aF50.02412033081055
aF50.08116149902344
aF50.13502502441406
aF50.19041061401367
aF50.223297119140625
aF50.274566650390625
aF50.319087982177734
aF50.35272979736328
aF50.38663101196289
aF50.4540901184082
aF50.48289489746094
aF50.50882339477539
aF50.533226013183594
aF50.53523254394531
aF50.53675842285156
aF50.52626037597656
aF50.519744873046875
aF50.506893157958984
aF50.49014663696289
aF50.48072814941406
aF50.4754524230957
aF50.46330642700195
aF50.4632682800293
aF50.46927261352539
aF50.471031188964844
aF50.47978210449219
aF50.48613357543945
aF50.48500442504883
aF50.47905349731445
aF50.471317291259766
aF50.45075607299805
aF50.43867492675781
aF50.415016174316406
aF50.38030242919922
aF50.33660125732422
aF50.30195236206055
aF50.2497444152832
aF50.1901741027832
aF50.14982986450195
aF50.0875244140625
aF50.02603530883789
aF49.98176574707031
aF49.93612289428711
aF49.89674758911133
aF49.8128662109375
aF49.779884338378906
aF49.76963806152344
aF49.7369270324707
aF49.720333099365234
aF49.69902801513672
aF49.665313720703125
aF49.625030517578125
aF49.5936279296875
aF49.5604133605957
aF49.51496124267578
aF49.479347229003906
aF49.46937942504883
aF49.45476150512695
aF49.43036651611328
aF49.40578079223633
aF49.396419525146484
aF49.36626052856445
aF49.3354377746582
aF49.305477142333984
aF49.27128982543945
aF49.23739242553711
aF49.222259521484375
aF49.189022064208984
aF49.158905029296875
aF49.14680099487305
aF49.116397857666016
aF49.086181640625
aF49.076011657714844
aF49.0730094909668
aF49.033111572265625
aF49.01445770263672
aF48.990116119384766
aF48.95424270629883
aF48.907772064208984
aF48.86251449584961
aF48.818565368652344
aF48.77497863769531
aF48.734588623046875
aF48.70584487915039
aF48.67081069946289
aF48.637699127197266
aF48.617942810058594
aF48.596675872802734
aF48.572509765625
aF48.537227630615234
aF48.502384185791016
aF48.48442459106445
aF48.45765686035156
aF48.416622161865234
aF48.38861846923828
aF48.336612701416016
aF48.304840087890625
aF48.2607421875
aF48.23111343383789
aF48.21711730957031
aF48.17784118652344
aF48.146217346191406
aF48.12419891357422
aF48.04523849487305
aF47.953060150146484
aF47.911739349365234
aF47.848419189453125
aF47.76816940307617
aF47.711631774902344
aF47.576622009277344
aF47.46501541137695
aF47.361305236816406
aF47.24980163574219
aF47.17585754394531
aF47.0650520324707
aF46.952884674072266
aF46.875633239746094
aF46.76520538330078
aF46.65410614013672
aF46.578697204589844
aF46.50444030761719
aF46.428646087646484
aF46.30754089355469
aF46.198482513427734
aF46.12395095825195
aF46.057369232177734
aF45.9786262512207
aF45.86595153808594
aF45.71305847167969
aF45.67536926269531
aF45.523345947265625
aF45.4461669921875
aF45.3682861328125
aF45.25629425048828
aF45.143409729003906
aF45.067501068115234
aF44.95195770263672
aF44.877506256103516
aF44.769309997558594
aF44.65853500366211
aF44.545928955078125
aF44.472129821777344
aF44.395076751708984
aF44.32358932495117
aF44.21168518066406
aF44.1024169921875
aF44.0287971496582
aF43.889461517333984
aF43.860904693603516
aF43.759788513183594
aF43.68561553955078
aF43.61368179321289
aF43.50503921508789
aF43.39252471923828
aF43.326515197753906
aF43.25212478637695
aF43.181182861328125
aF43.06696701049805
aF42.958343505859375
aF42.844234466552734
aF42.769718170166016
aF42.65788269042969
aF42.585426330566406
aF42.47417449951172
aF42.36110305786133
aF42.24946212768555
aF42.174617767333984
aF42.062713623046875
aF41.9903450012207
aF41.8466682434082
aF41.732608795166016
aF41.65870666503906
aF41.511322021484375
aF41.44166946411133
aF41.335716247558594
aF41.26778793334961
aF41.19289016723633
aF41.12577819824219
aF41.01966857910156
aF40.908992767333984
aF40.836669921875
aF40.761566162109375
aF40.68393325805664
aF40.5714225769043
aF40.49641036987305
aF40.38123321533203
aF40.266998291015625
aF40.153934478759766
aF40.117225646972656
aF39.92121887207031
aF39.8457145690918
aF39.726959228515625
aF39.64669418334961
aF39.56891632080078
aF39.489315032958984
aF39.36773681640625
aF39.280548095703125
aF39.16208267211914
aF39.042659759521484
aF38.956546783447266
aF38.8739128112793
aF38.75627517700195
aF38.67714309692383
aF38.55649185180664
aF38.470741271972656
aF38.35367965698242
aF38.23785400390625
aF38.153594970703125
aF38.0727653503418
aF37.9567756652832
aF37.881492614746094
aF37.76105499267578
aF37.6890983581543
aF37.5796012878418
aF37.46097946166992
aF37.37582015991211
aF37.255523681640625
aF37.130409240722656
aF37.0519905090332
aF36.97180938720703
aF36.893943786621094
aF36.778961181640625
aF36.70130920410156
aF36.62609100341797
aF36.47562789916992
aF36.40122604370117
aF36.3243522644043
aF36.24964904785156
aF36.17671585083008
aF36.06773376464844
aF35.9931755065918
aF35.88343811035156
aF35.739986419677734
aF35.703826904296875
aF35.592002868652344
aF35.51927947998047
aF35.445701599121094
aF35.37094497680664
aF35.298404693603516
aF35.18864822387695
aF35.119991302490234
aF35.0132942199707
aF34.936771392822266
aF34.8609733581543
aF34.7122917175293
aF34.601898193359375
aF34.52675247192383
aF34.41621398925781
aF34.35182189941406
aF34.27766799926758
aF34.1818733215332
aF34.115821838378906
aF34.01832580566406
aF33.91360855102539
aF33.843624114990234
aF33.74552917480469
aF33.680946350097656
aF33.61329650878906
aF33.508243560791016
aF33.4377555847168
aF33.361900329589844
aF33.28538131713867
aF33.176456451416016
aF33.102630615234375
aF33.02979278564453
aF32.9566764831543
aF32.884124755859375
aF32.77554702758789
aF32.669639587402344
aF32.604522705078125
aF32.478328704833984
aF32.356292724609375
aF32.2740592956543
aF32.20020294189453
aF32.134769439697266
aF32.032752990722656
aF31.932771682739258
aF31.881410598754883
aF31.784557342529297
aF31.688264846801758
aF31.647184371948242
aF31.579151153564453
aF31.510507583618164
aF31.40060043334961
aF31.325439453125
aF31.212383270263672
aF31.14153480529785
aF31.068986892700195
aF30.9742431640625
aF30.930089950561523
aF30.8730411529541
aF30.855825424194336
aF30.836566925048828
aF30.814285278320312
aF30.77887535095215
aF30.743921279907227
aF30.705644607543945
aF30.665616989135742
aF30.655323028564453
aF30.624107360839844
aF30.618032455444336
aF30.593700408935547
aF30.554319381713867
aF30.529584884643555
aF30.48914337158203
aF30.464370727539062
aF30.436094284057617
aF30.39594078063965
aF30.371686935424805
aF30.327898025512695
aF30.309057235717773
aF30.290407180786133
aF30.250591278076172
aF30.227886199951172
aF30.198488235473633
aF30.18561363220215
aF30.20093536376953
aF30.19280242919922
aF30.195934295654297
aF30.195947647094727
aF30.199758529663086
aF30.19976234436035
aF30.201316833496094
aF30.205455780029297
aF30.189882278442383
aF30.189882278442383
aF30.18963050842285
aF30.20037269592285
aF30.191930770874023
aF30.202068328857422
aF30.202451705932617
aF30.19101333618164
aF30.213973999023438
aF30.215682983398438
aF30.222366333007812
aF30.254966735839844
aF30.250703811645508
aF30.28598403930664
aF30.297929763793945
aF30.303556442260742
aF30.335355758666992
aF30.340421676635742
aF30.355703353881836
aF30.366561889648438
aF30.378236770629883
aF30.395368576049805
aF30.394723892211914
aF30.4367733001709
aF30.432472229003906
aF30.44051742553711
aF30.43023681640625
aF30.43010902404785
aF30.427995681762695
aF30.429187774658203
aF30.443164825439453
aF30.4472713470459
aF30.445995330810547
aF30.446897506713867
aF30.446447372436523
aF30.446012496948242
aF30.446182250976562
aF30.4464111328125
aF30.45429039001465
aF30.4547176361084
aF30.470016479492188
aF30.469621658325195
aF30.46916961669922
aF30.468435287475586
aF30.468271255493164
aF30.468299865722656
aF30.406234741210938
aF30.382226943969727
aF30.3808650970459
aF30.383424758911133
aF30.430498123168945
aF30.43427276611328
aF30.433591842651367
aF30.456562042236328
aF30.4718074798584
aF30.475963592529297
aF30.503503799438477
aF30.511642456054688
aF30.521902084350586
asS'timeStamp'
p5
(lp6
F0.0
aF0.10084295272827148
aF0.24125289916992188
aF0.40208005905151367
aF0.5079936981201172
aF0.6306045055389404
aF0.7656941413879395
aF0.8290953636169434
aF1.0020124912261963
aF1.1098213195800781
aF1.2154009342193604
aF1.3549778461456299
aF1.4512739181518555
aF1.561635971069336
aF1.6254425048828125
aF1.755542516708374
aF1.849242925643921
aF1.9898641109466553
aF2.087491750717163
aF2.1921396255493164
aF2.3192410469055176
aF2.4775500297546387
aF2.6896564960479736
aF2.787024974822998
aF2.918445348739624
aF3.0461063385009766
aF3.1422839164733887
aF3.24385929107666
aF3.384660005569458
aF3.5143439769744873
aF3.6543424129486084
aF3.7569363117218018
aF3.84173583984375
aF3.944025993347168
aF4.03758430480957
aF4.179969310760498
aF4.300349235534668
aF4.44731330871582
aF4.580983877182007
aF4.6858885288238525
aF4.851075172424316
aF4.980282306671143
aF5.086941719055176
aF5.254197120666504
aF5.346441030502319
aF5.45564603805542
aF5.583367347717285
aF5.683354616165161
aF5.84649133682251
aF5.943991422653198
aF6.055758237838745
aF6.209666967391968
aF6.310887575149536
aF6.440086364746094
aF6.54684853553772
aF6.648296594619751
aF6.7836668491363525
aF6.910343647003174
aF7.052545785903931
aF7.182331085205078
aF7.307710886001587
aF7.4472432136535645
aF7.553095102310181
aF7.712920188903809
aF7.849116563796997
aF7.951962947845459
aF8.049940586090088
aF8.152023792266846
aF8.243851661682129
aF8.385229349136353
aF8.508540391921997
aF8.676368474960327
aF8.764220714569092
aF8.874854803085327
aF8.987250089645386
aF9.153553485870361
aF9.245694160461426
aF9.416590213775635
aF9.552842378616333
aF9.647889614105225
aF9.751777410507202
aF9.85235333442688
aF10.009248495101929
aF10.148823022842407
aF10.274051189422607
aF10.381699562072754
aF10.481294393539429
aF10.589618444442749
aF10.739039659500122
aF10.838266134262085
aF11.00196886062622
aF11.10013461112976
aF11.194471836090088
aF11.304533243179321
aF11.398495435714722
aF11.530810594558716
aF11.63154935836792
aF11.769375085830688
aF11.866258144378662
aF11.99402666091919
aF12.188217878341675
aF12.262672185897827
aF12.394960165023804
aF12.55988883972168
aF12.660340547561646
aF12.787192344665527
aF12.93186092376709
aF13.062388181686401
aF13.158195495605469
aF13.260084867477417
aF13.359520673751831
aF13.559771537780762
aF13.6629056930542
aF13.7590491771698
aF13.857571363449097
aF13.991597175598145
aF14.100021600723267
aF14.196892261505127
aF14.367595434188843
aF14.439896583557129
aF14.53377366065979
aF14.660496950149536
aF14.76176905632019
aF14.867993593215942
aF14.996368885040283
aF15.13451862335205
aF15.269177913665771
aF15.37099003791809
aF15.503687143325806
aF15.598866701126099
aF15.672869443893433
aF15.777987957000732
aF15.941866159439087
aF16.068209886550903
aF16.174735069274902
aF16.30635166168213
aF16.37138342857361
aF16.469071865081787
aF16.563180446624756
aF16.695690155029297
aF16.795361518859863
aF16.94022297859192
aF17.052813291549683
aF17.191950798034668
aF17.325444221496582
aF17.45413088798523
aF17.61692762374878
aF17.700711488723755
aF17.840049266815186
aF17.937439918518066
aF18.052422523498535
aF18.19293212890625
aF18.361348390579224
aF18.462597131729126
aF18.592790365219116
aF18.702550649642944
aF18.82721781730652
aF18.957607984542847
aF19.056326627731323
aF19.19331645965576
aF19.354511976242065
aF19.459613800048828
aF19.595795154571533
aF19.752708435058594
aF19.850295543670654
aF20.030272006988525
aF20.157560348510742
aF20.262720346450806
aF20.39697527885437
aF20.557634115219116
aF20.65244698524475
aF20.817532539367676
aF20.88690423965454
aF20.98908042907715
aF21.0919291973114
aF21.251763820648193
aF21.39712929725647
aF21.555639505386353
aF21.651861667633057
aF21.815588235855103
aF21.953580379486084
aF22.05991816520691
aF22.153670072555542
aF22.28911852836609
aF22.3846333026886
aF22.587613821029663
aF22.686415433883667
aF22.794419527053833
aF22.98527979850769
aF23.08297371864319
aF23.2265944480896
aF23.319535493850708
aF23.456706285476685
aF23.589072942733765
aF23.68191432952881
aF23.782670259475708
aF23.985184907913208
aF24.085196495056152
aF24.18611788749695
aF24.290692806243896
aF24.386305809020996
aF24.54609251022339
aF24.7139413356781
aF24.825920820236206
aF24.92238187789917
aF25.08464217185974
aF25.22364377975464
aF25.35306668281555
aF25.491374492645264
aF25.594221830368042
aF25.693448543548584
aF25.86026620864868
aF25.953912258148193
aF26.094678163528442
aF26.2290096282959
aF26.35411548614502
aF26.529433727264404
aF26.629299640655518
aF26.75486946105957
aF26.910335302352905
aF27.00658130645752
aF27.117332935333252
aF27.215593576431274
aF27.342926263809204
aF27.572131156921387
aF27.74812626838684
aF27.98225164413452
aF28.085299015045166
aF28.215665102005005
aF28.34136199951172
aF28.44361186027527
aF28.53923797607422
aF28.642709016799927
aF28.741625785827637
aF28.877923011779785
aF29.00866150856018
aF29.135398626327515
aF29.27693200111389
aF29.443305015563965
aF29.538789987564087
aF29.648574113845825
aF29.745612382888794
aF29.92017102241516
aF30.18259286880493
aF30.283519506454468
aF30.41509509086609
aF30.549031496047974
aF30.72758197784424
aF30.882136821746826
aF31.049091577529907
aF31.14431643486023
aF31.28563117980957
aF31.41257953643799
aF31.518145084381104
aF31.611977577209473
aF31.747544288635254
aF31.878603219985962
aF31.991058111190796
aF32.087926626205444
aF32.19994831085205
aF32.36040115356445
aF32.517855644226074
aF32.61645174026489
aF32.74898409843445
aF32.87747836112976
aF33.00566744804382
aF33.11115026473999
aF33.20972394943237
aF33.404200077056885
aF33.51485228538513
aF33.711647033691406
aF33.809645652770996
aF33.94945287704468
aF34.13172888755798
aF34.25500750541687
aF34.41521978378296
aF34.552233934402466
aF34.649516105651855
aF34.785261154174805
aF34.860246419906616
aF34.95654630661011
aF35.08486557006836
aF35.2166314125061
aF35.35418915748596
aF35.51611804962158
aF35.62330961227417
aF35.819329500198364
aF35.95069146156311
aF36.046337366104126
aF36.210211515426636
aF36.37068438529968
aF36.519184589385986
aF36.61307215690613
aF36.74883151054382
aF36.87962532043457
aF36.98001432418823
aF37.16698169708252
aF37.29789662361145
aF37.41329622268677
aF37.621687173843384
aF37.762998819351196
aF37.908106327056885
aF38.01094079017639
aF38.205358266830444
aF38.299928426742554
aF38.44325852394104
aF38.5430223941803
aF38.70338988304138
aF38.81282162666321
aF38.957080125808716
aF39.075573444366455
aF39.20976758003235
aF39.3483784198761
aF39.49762153625488
aF39.63770318031311
aF39.76403880119324
aF39.90169620513916
aF40.03790903091431
aF40.151206731796265
aF40.301422357559204
aF40.419923067092896
aF40.554728507995605
aF40.70906066894531
aF40.81809139251709
aF40.93391704559326
aF41.03385305404663
aF41.15917658805847
aF41.30038666725159
aF41.4702308177948
aF41.5509295463562
aF41.6651508808136
aF41.7666916847229
aF41.91521072387695
aF42.04924273490906
aF42.16279745101929
aF42.26346397399902
aF42.36067533493042
aF42.498589754104614
aF42.64331579208374
aF42.753623247146606
aF42.83515000343323
aF42.958979845047
aF43.09709095954895
aF43.291346073150635
aF43.43696045875549
aF43.541271924972534
aF43.70644569396973
aF43.896682262420654
aF44.04618310928345
aF44.1572425365448
aF44.29660391807556
aF44.48565483093262
aF44.59825587272644
aF44.7279794216156
aF44.838690996170044
aF44.981658935546875
aF45.190473794937134
aF45.32364344596863
aF45.44223141670227
aF45.55329418182373
aF45.758163928985596
aF45.99904680252075
aF46.10061264038086
aF46.21328592300415
aF46.30543851852417
aF46.43180012702942
aF46.56245160102844
aF46.6949667930603
aF46.84656596183777
aF46.96568489074707
aF47.127015113830566
aF47.257619857788086
aF47.36325001716614
aF47.53079915046692
aF47.6585898399353
aF47.76149106025696
aF47.858152627944946
aF48.03570103645325
aF48.16410779953003
aF48.32385444641113
aF48.45699644088745
aF48.55237054824829
aF48.71264171600342
aF48.85458850860596
aF48.96490526199341
aF49.15883946418762
aF49.30419683456421
aF49.40420436859131
aF49.56076526641846
aF49.76368761062622
aF49.9237322807312
aF49.99516439437866
aF50.10230612754822
aF50.2557156085968
aF50.36519241333008
aF50.52771353721619
aF50.666714668273926
aF50.79554057121277
aF50.90600609779358
aF50.98839211463928
aF51.09104037284851
aF51.20575833320618
aF51.30787181854248
aF51.47048616409302
aF51.58387231826782
aF51.71633863449097
aF51.84075427055359
aF52.01484179496765
aF52.11144685745239
aF52.2072217464447
aF52.35932159423828
aF52.51420068740845
aF52.64969229698181
aF52.75063180923462
aF52.84625840187073
aF52.956889390945435
aF53.10597205162048
aF53.242684841156006
aF53.35279607772827
aF53.44716119766235
aF53.55553197860718
aF53.71458673477173
aF53.81510949134827
aF53.95470857620239
aF54.04907155036926
aF54.154834270477295
aF54.25000333786011
aF54.35528111457825
aF54.592243909835815
aF54.71824645996094
aF54.811482191085815
aF54.95234560966492
aF55.06763482093811
aF55.21629047393799
aF55.312098264694214
aF55.449214696884155
aF55.59132957458496
aF55.70115637779236
aF55.81480884552002
aF55.98310470581055
aF56.10855579376221
aF56.24336051940918
aF56.35397481918335
aF56.51419973373413
aF56.648966550827026
aF56.812397718429565
aF56.90738344192505
aF57.07104754447937
aF57.19231462478638
aF57.30649518966675
aF57.55207300186157
aF57.618062019348145
aF57.71395516395569
aF57.852924823760986
aF58.01245045661926
aF58.107011556625366
aF58.24615836143494
aF58.39027523994446
aF58.53033661842346
aF58.66084837913513
aF58.82049512863159
aF58.8863468170166
aF59.0809805393219
aF59.211623430252075
aF59.30978441238403
aF59.46872544288635
aF59.628894329071045
aF59.7223117351532
aF59.86220717430115
aF60.005404233932495
aF60.1050808429718
aF60.23599052429199
aF60.39989495277405
aF60.49811410903931
aF60.65909695625305
aF60.78903937339783
aF60.8979766368866
aF61.04164361953735
aF61.19784951210022
aF61.29722261428833
aF61.545506715774536
aF61.67109131813049
aF61.79597067832947
aF61.89704394340515
aF62.06161427497864
aF62.190345764160156
aF62.2929470539093
aF62.53982090950012
aF62.75779676437378
aF62.897170305252075
aF63.15488910675049
aF63.29597473144531
aF63.39287066459656
aF63.49638772010803
aF63.64228653907776
aF63.7888925075531
aF63.92589807510376
aF64.06561040878296
aF64.1965844631195
aF64.30238795280457
aF64.46669268608093
aF64.5918242931366
aF64.69770097732544
aF64.8672022819519
aF65.0008156299591
aF65.1383957862854
aF65.26601791381836
aF65.40681028366089
aF65.5078284740448
aF65.66881346702576
aF65.79307746887207
aF65.89153480529785
aF66.05684924125671
aF66.15647006034851
aF66.29001474380493
aF66.38496613502502
aF66.51571202278137
aF66.64403462409973
aF66.75614404678345
aF66.88725280761719
aF67.00044536590576
aF67.126380443573
aF67.24165916442871
aF67.38259148597717
aF67.49878191947937
aF67.59435653686523
aF67.73216724395752
aF67.85652136802673
aF67.97179770469666
aF68.14439797401428
aF68.26386451721191
aF68.37955212593079
aF68.54453039169312
aF68.65830564498901
aF68.77337169647217
aF68.94257664680481
aF69.06449055671692
aF69.17530012130737
aF69.34337949752808
aF69.45953869819641
aF69.59960794448853
aF69.71773433685303
aF69.85752439498901
aF69.9785897731781
aF70.12159061431885
aF70.26194763183594
aF70.36759662628174
aF70.54468178749084
aF70.66475176811218
aF70.82562398910522
aF70.94324111938477
aF71.07661557197571
aF71.22537207603455
aF71.3393337726593
aF71.4720184803009
aF71.6098964214325
aF71.74440240859985
aF71.85852122306824
aF72.06560587882996
aF72.22326397895813
aF72.33031129837036
aF72.44853138923645
aF72.61833238601685
aF72.74794483184814
aF72.85279369354248
aF73.02583599090576
aF73.13872170448303
aF73.25739097595215
aF73.36812829971313
aF73.46538805961609
aF73.6326687335968
aF73.7852373123169
aF73.84709239006042
aF74.0371162891388
aF74.13835525512695
aF74.2663025856018
aF74.43461012840271
aF74.63454961776733
aF74.74170160293579
aF74.85910391807556
aF75.02352213859558
aF75.18500828742981
aF75.28068566322327
aF75.47810626029968
aF75.60128426551819
aF75.74510264396667
aF75.86670303344727
aF76.00931167602539
aF76.12619185447693
aF76.27910852432251
aF76.41916394233704
aF76.5438642501831
aF76.66316246986389
aF76.82017731666565
aF76.92713212966919
aF77.07403349876404
aF77.19313144683838
aF77.31873679161072
aF77.49820327758789
aF77.59516906738281
aF77.72725200653076
aF77.8563723564148
aF77.95424389839172
aF78.05157375335693
aF78.2171721458435
aF78.33389496803284
aF78.46343278884888
aF78.61705446243286
aF78.74458885192871
aF78.85127758979797
aF79.01502513885498
aF79.1466736793518
aF79.25081968307495
aF79.34901332855225
aF79.46642684936523
aF79.61241912841797
aF79.74999070167542
aF79.85611915588379
aF79.97165656089783
aF80.09123134613037
aF80.21197772026062
aF80.35437536239624
aF80.45677328109741
aF80.62122511863708
aF80.75768041610718
aF80.8627827167511
aF81.02109432220459
aF81.15940141677856
aF81.26121282577515
aF81.42317867279053
aF81.58745908737183
aF81.69376730918884
aF81.82317566871643
aF81.95304942131042
aF82.06440544128418
aF82.25888967514038
aF82.41521549224854
aF82.56801772117615
aF82.67429876327515
aF82.80891585350037
aF82.96161031723022
aF83.09069085121155
aF83.18910789489746
aF83.34477186203003
aF83.48525500297546
aF83.5975821018219
aF83.68552041053772
aF83.79800248146057
aF83.96786665916443
aF84.08747053146362
aF84.18362236022949
aF84.28160405158997
aF84.42371892929077
aF84.54061365127563
aF84.73001670837402
aF84.79280185699463
aF84.98339796066284
aF85.08977222442627
aF85.22845435142517
aF85.35407328605652
aF85.48504328727722
aF85.60375881195068
aF85.76716566085815
aF85.83270573616028
aF85.9973955154419
aF86.14048218727112
aF86.30069732666016
aF86.39978647232056
aF86.49276971817017
aF86.60746908187866
aF86.7425947189331
aF86.90287017822266
aF86.99721240997314
aF87.17063117027283
aF87.24544858932495
aF87.40460348129272
aF87.49950313568115
aF87.6316168308258
aF87.76842379570007
aF87.86914348602295
aF88.01651692390442
aF88.08206033706665
aF88.20328640937805
aF88.36086010932922
aF88.4934434890747
aF88.64161920547485
aF88.73711371421814
aF88.87211871147156
aF89.00619387626648
aF89.13648653030396
aF89.26996040344238
aF89.44157600402832
aF89.54599857330322
aF89.70751357078552
aF89.81078886985779
aF90.01548719406128
aF90.16114020347595
aF90.26781988143921
aF90.4455840587616
aF90.55286192893982
aF90.72048306465149
aF90.80471014976501
aF90.89824557304382
aF91.00210332870483
aF91.15242671966553
aF91.26585459709167
aF91.40262246131897
aF91.50046920776367
aF91.60987401008606
aF91.75468611717224
aF91.86582899093628
aF92.02603435516357
aF92.15079641342163
aF92.27550983428955
aF92.37443685531616
aF92.59315586090088
aF92.68718981742859
aF92.83554315567017
aF92.96658515930176
aF93.06311106681824
aF93.1576178073883
aF93.26961517333984
aF93.40692663192749
aF93.5564911365509
aF93.67235279083252
aF93.80192112922668
aF93.9166955947876
aF94.02922749519348
aF94.14699864387512
aF94.26503777503967
aF94.39740347862244
aF94.56645727157593
aF94.66779232025146
aF94.79943370819092
aF94.91912484169006
aF95.03191828727722
aF95.14616847038269
aF95.29327511787415
aF95.40130352973938
aF95.56277418136597
aF95.71665668487549
aF95.82951593399048
aF95.95424628257751
aF96.09338307380676
aF96.19754028320312
aF96.29502654075623
aF96.39980745315552
aF96.52316212654114
aF96.62626481056213
aF96.72942924499512
aF96.92333483695984
aF97.02912878990173
aF97.12464714050293
aF97.232994556427
aF97.36680150032043
aF97.49545645713806
aF97.58986020088196
aF97.75323820114136
aF97.9145154953003
aF98.02360773086548
aF98.15001606941223
aF98.25811529159546
aF98.3511688709259
aF98.45649576187134
aF98.55170464515686
aF98.69560027122498
aF98.79151892662048
aF98.95082569122314
aF99.05722975730896
aF99.15217876434326
aF99.35023236274719
aF99.48489046096802
aF99.59526896476746
aF99.75486755371094
aF99.86160469055176
aF99.95931005477905
aF100.09405779838562
aF100.19479012489319
aF100.34439277648926
aF100.48213958740234
aF100.61272978782654
aF100.74084639549255
aF100.84459328651428
aF100.95856237411499
aF101.07556009292603
aF101.17027854919434
aF101.28070950508118
aF101.38235402107239
aF101.54234576225281
aF101.6505196094513
aF101.74412822723389
aF101.83967852592468
aF101.94481205940247
aF102.1057357788086
aF102.23627257347107
aF102.3509316444397
aF102.4775903224945
aF102.64629316329956
aF102.75431704521179
aF102.84856986999512
aF102.94331359863281
aF103.10547685623169
aF103.24475264549255
aF103.35377860069275
aF103.51097440719604
aF103.61785316467285
aF103.74763131141663
aF103.86175417900085
aF103.9540708065033
aF104.08962345123291
aF104.20297431945801
aF104.34997177124023
aF104.45577454566956
aF104.54824137687683
aF104.65797519683838
aF104.80823707580566
aF104.94567441940308
aF105.0555191040039
aF105.14787602424622
aF105.26142287254333
aF105.40241503715515
aF105.54644918441772
aF105.68874001502991
aF105.81811308860779
aF105.88421893119812
aF106.01594352722168
aF106.15572333335876
aF106.25539708137512
aF106.3843183517456
aF106.50412917137146
aF106.6201479434967
aF106.74996614456177
aF106.85486650466919
aF106.97180128097534
aF107.09056854248047
aF107.22352433204651
aF107.37866139411926
aF107.50409698486328
aF107.61973881721497
aF107.7533791065216
aF107.89448523521423
aF108.03971290588379
aF108.15071225166321
aF108.28189420700073
aF108.41274619102478
aF108.47698497772217
aF108.60800099372864
aF108.70290493965149
aF108.77885437011719
aF108.87924885749817
aF109.0112988948822
aF109.10680222511292
aF109.24452042579651
aF109.35279417037964
aF109.50364804267883
aF109.64352655410767
aF109.74987459182739
aF109.87384510040283
aF110.04639315605164
aF110.1718111038208
aF110.2776129245758
aF110.47205018997192
aF110.57284331321716
aF110.67587471008301
aF110.81309604644775
aF110.87805366516113
aF111.01557230949402
aF111.08032250404358
aF111.24104189872742
aF111.3445315361023
aF111.47593760490417
aF111.61357760429382
aF111.67794609069824
aF111.85061264038086
aF111.9437415599823
aF112.08748030662537
aF112.21198225021362
aF112.27693223953247
aF112.44138288497925
aF112.54684591293335
aF112.73216891288757
aF112.84407329559326
aF112.94038939476013
aF113.09791684150696
aF113.2087345123291
aF113.32874798774719
aF113.43623924255371
aF113.54236125946045
aF113.64579558372498
aF113.76346945762634
aF113.90796756744385
aF114.00909781455994
aF114.13354063034058
aF114.25710463523865
aF114.34183526039124
aF114.51086711883545
aF114.63512825965881
aF114.76810574531555
aF114.90189862251282
aF115.03828620910645
aF115.16587090492249
aF115.3441915512085
aF115.44888281822205
aF115.53437232971191
aF115.64743304252625
aF115.756671667099
aF115.91278862953186
aF116.02933120727539
aF116.13837265968323
asS'angle'
p7
(lp8
F-0.08323781192302704
aF-0.06376094371080399
aF-0.08248234540224075
aF-0.0813249722123146
aF-0.08312174677848816
aF-0.08514834195375443
aF-0.06105451658368111
aF-0.06105451658368111
aF-0.02898220717906952
aF-0.015223567374050617
aF-0.0045585413463413715
aF0.010643712244927883
aF0.010643712244927883
aF0.026256442070007324
aF0.026285499334335327
aF0.04006475955247879
aF0.046319808810949326
aF0.051546450704336166
aF0.054997362196445465
aF0.0601508803665638
aF0.06472095847129822
aF0.06791020184755325
aF0.07008545845746994
aF0.07140330970287323
aF0.0709506943821907
aF0.07023221999406815
aF0.06979754567146301
aF0.07095639407634735
aF0.06949921697378159
aF0.06750760972499847
aF0.06296529620885849
aF0.05590679869055748
aF0.04968433454632759
aF0.03516726940870285
aF0.03454287722706795
aF0.021377377212047577
aF0.011987821198999882
aF0.012082349509000778
aF0.0096694091334939
aF0.013888087123632431
aF0.01809767819941044
aF0.020937692373991013
aF0.020451275631785393
aF0.023312440142035484
aF0.024327848106622696
aF0.028556525707244873
aF0.0310142170637846
aF0.029153186827898026
aF0.027159735560417175
aF0.027218349277973175
aF0.02255406230688095
aF0.01783134788274765
aF0.01013649720698595
aF-9.351371409138665e-05
aF-0.001566427294164896
aF-0.012920089066028595
aF-0.03470418229699135
aF-0.06738097965717316
aF-0.14936205744743347
aF-0.1646593064069748
aF-0.1722002774477005
aF-0.1762513667345047
aF-0.1774173080921173
aF-0.17705240845680237
aF-0.18615476787090302
aF-0.18976908922195435
aF-0.19032222032546997
aF-0.1907285749912262
aF-0.18694227933883667
aF-0.18703974783420563
aF-0.18144549429416656
aF-0.18153667449951172
aF-0.18367472290992737
aF-0.1830989569425583
aF-0.18861347436904907
aF-0.19423945248126984
aF-0.1902008205652237
aF-0.1859074980020523
aF-0.16862642765045166
aF-0.16918057203292847
aF-0.16596272587776184
aF-0.16808176040649414
aF-0.16416868567466736
aF-0.17087525129318237
aF-0.17252792418003082
aF-0.1725807636976242
aF-0.16584432125091553
aF-0.1634768396615982
aF-0.1550806611776352
aF-0.15108537673950195
aF-0.1507244110107422
aF-0.14491496980190277
aF-0.1429862082004547
aF-0.14004361629486084
aF-0.13585062325000763
aF-0.13237649202346802
aF-0.13327740132808685
aF-0.1341971606016159
aF-0.13280248641967773
aF-0.13569334149360657
aF-0.1435936987400055
aF-0.14852184057235718
aF-0.15211617946624756
aF-0.15155954658985138
aF-0.15096622705459595
aF-0.14944028854370117
aF-0.14240403473377228
aF-0.13904167711734772
aF-0.1382226049900055
aF-0.1315862387418747
aF-0.13074617087841034
aF-0.12716762721538544
aF-0.1263047754764557
aF-0.1259968876838684
aF-0.1303737312555313
aF-0.13603322207927704
aF-0.14306968450546265
aF-0.14274272322654724
aF-0.15150406956672668
aF-0.1570480316877365
aF-0.1597900390625
aF-0.16558681428432465
aF-0.1686062216758728
aF-0.17349401116371155
aF-0.227227121591568
aF-0.24023108184337616
aF-0.20190085470676422
aF-0.19313515722751617
aF-0.1760471910238266
aF-0.17436231672763824
aF-0.1686393916606903
aF-0.16446341574192047
aF-0.13224005699157715
aF-0.0903661698102951
aF-0.0208875872194767
aF0.06512746214866638
aF0.11287476867437363
aF0.12702850997447968
aF0.12656669318675995
aF0.12235502898693085
aF0.12492332607507706
aF0.12548963725566864
aF0.12638191878795624
aF0.15524181723594666
aF0.24925905466079712
aF0.3197275996208191
aF0.3997451364994049
aF0.4201386570930481
aF0.414897620677948
aF0.4135453999042511
aF0.4130968153476715
aF0.4084365665912628
aF0.40592458844184875
aF0.4078393876552582
aF0.40304043889045715
aF0.40531525015830994
aF0.4045979082584381
aF0.4030410349369049
aF0.4036295711994171
aF0.40407347679138184
aF0.40166792273521423
aF0.40287482738494873
aF0.40160128474235535
aF0.40475988388061523
aF0.40250784158706665
aF0.44555363059043884
aF0.4433867633342743
aF0.43804922699928284
aF0.4432714283466339
aF0.4480644464492798
aF0.4578133821487427
aF0.4666880667209625
aF0.47009357810020447
aF0.47933247685432434
aF0.4860953092575073
aF0.4846547245979309
aF0.4933629333972931
aF0.4941122829914093
aF0.4930318593978882
aF0.4896218478679657
aF0.4895474314689636
aF0.49023401737213135
aF0.49023401737213135
aF0.49223124980926514
aF0.49234792590141296
aF0.49067625403404236
aF0.49177220463752747
aF0.49143165349960327
aF0.493270605802536
aF0.493655800819397
aF0.4886944890022278
aF0.4910392165184021
aF0.4853639602661133
aF0.48721617460250854
aF0.4867088794708252
aF0.48911252617836
aF0.48419544100761414
aF0.48761892318725586
aF0.4949391782283783
aF0.5368582606315613
aF0.5709320902824402
aF0.6074956655502319
aF0.6673043370246887
aF0.6955347061157227
aF0.7221915125846863
aF0.7682112455368042
aF0.808601438999176
aF0.8365786075592041
aF0.8758559823036194
aF0.9070461988449097
aF0.9522309303283691
aF1.0166383981704712
aF1.0593634843826294
aF1.1199744939804077
aF1.1640839576721191
aF1.182871699333191
aF1.1771857738494873
aF1.1781737804412842
aF1.182701587677002
aF1.1798655986785889
aF1.1816705465316772
aF1.1828737258911133
aF1.1863572597503662
aF1.1869648694992065
aF1.1881797313690186
aF1.1867964267730713
aF1.1809183359146118
aF1.1800798177719116
aF1.1788480281829834
aF1.1878348588943481
aF1.2326799631118774
aF1.2695820331573486
aF1.29740571975708
aF1.332229495048523
aF1.3237801790237427
aF1.3246866464614868
aF1.3241862058639526
aF1.321402668952942
aF1.3161485195159912
aF1.31442129611969
aF1.3103357553482056
aF1.3108272552490234
aF1.299804925918579
aF1.2932509183883667
aF1.2914173603057861
aF1.2900785207748413
aF1.2900182008743286
aF1.2903741598129272
aF1.2965844869613647
aF1.2941889762878418
aF1.2935038805007935
aF1.2881742715835571
aF1.2876380681991577
aF1.2894421815872192
aF1.288738489151001
aF1.2870252132415771
aF1.2900601625442505
aF1.2911738157272339
aF1.2911547422409058
aF1.293756365776062
aF1.3156757354736328
aF1.3046679496765137
aF1.3165091276168823
aF1.3138989210128784
aF1.324194312095642
aF1.3187832832336426
aF1.3184670209884644
aF1.3271291255950928
aF1.332256555557251
aF1.3318246603012085
aF1.3336145877838135
aF1.3348712921142578
aF1.3387211561203003
aF1.340958833694458
aF1.3399653434753418
aF1.381265640258789
aF1.4874119758605957
aF1.5946861505508423
aF1.7105485200881958
aF1.7386276721954346
aF1.767936110496521
aF1.7720324993133545
aF1.7812914848327637
aF1.7756174802780151
aF1.7806957960128784
aF1.781206488609314
aF1.7909901142120361
aF1.794816255569458
aF1.7975761890411377
aF1.799391508102417
aF1.8005496263504028
aF1.8002063035964966
aF1.80120849609375
aF1.8013272285461426
aF1.8011794090270996
aF1.7997722625732422
aF1.7965898513793945
aF1.795533299446106
aF1.7958399057388306
aF1.7952972650527954
aF1.7900019884109497
aF1.786795735359192
aF1.784795880317688
aF1.7813924551010132
aF1.7888669967651367
aF1.779421091079712
aF1.7815195322036743
aF1.7873308658599854
aF1.7847243547439575
aF1.78473699092865
aF1.7863630056381226
aF1.7918415069580078
aF1.792267918586731
aF1.7925255298614502
aF1.7891126871109009
aF1.7911278009414673
aF1.7900372743606567
aF1.7884700298309326
aF1.7853261232376099
aF1.7839810848236084
aF1.7793066501617432
aF1.7716442346572876
aF1.7782264947891235
aF1.7720433473587036
aF1.7645984888076782
aF1.7701115608215332
aF1.7610173225402832
aF1.7129040956497192
aF1.6836485862731934
aF1.6464462280273438
aF1.6252498626708984
aF1.6260719299316406
aF1.615768551826477
aF1.6098113059997559
aF1.6060651540756226
aF1.6040726900100708
aF1.6073527336120605
aF1.603851318359375
aF1.5958278179168701
aF1.5943653583526611
aF1.5962257385253906
aF1.614937663078308
aF1.6865662336349487
aF1.7122325897216797
aF1.7126049995422363
aF1.71329927444458
aF1.7158271074295044
aF1.7170073986053467
aF1.7157998085021973
aF1.7156522274017334
aF1.7146450281143188
aF1.7156661748886108
aF1.7175819873809814
aF1.7182579040527344
aF1.718989610671997
aF1.719684362411499
aF1.72315514087677
aF1.7229232788085938
aF1.7239948511123657
aF1.7238627672195435
aF1.7231334447860718
aF1.7207874059677124
aF1.7226591110229492
aF1.721495270729065
aF1.7249960899353027
aF1.7222613096237183
aF1.7275822162628174
aF1.7344083786010742
aF1.736343264579773
aF1.7403628826141357
aF1.742404818534851
aF1.7426695823669434
aF1.7413884401321411
aF1.7419044971466064
aF1.735112190246582
aF1.7366347312927246
aF1.7364367246627808
aF1.7335822582244873
aF1.7325953245162964
aF1.7262459993362427
aF1.720390796661377
aF1.7201918363571167
aF1.7170583009719849
aF1.7187248468399048
aF1.7167009115219116
aF1.7206004858016968
aF1.7192060947418213
aF1.7165237665176392
aF1.7090245485305786
aF1.6985737085342407
aF1.698866605758667
aF1.6999139785766602
aF1.701337218284607
aF1.704451084136963
aF1.7069836854934692
aF1.7087231874465942
aF1.711700677871704
aF1.716933012008667
aF1.7186269760131836
aF1.721577525138855
aF1.7222857475280762
aF1.7252774238586426
aF1.730818510055542
aF1.7137582302093506
aF1.7171810865402222
aF1.715814471244812
aF1.7163972854614258
aF1.7145329713821411
aF1.713832974433899
aF1.7129485607147217
aF1.7128804922103882
aF1.7136759757995605
aF1.7115181684494019
aF1.7087914943695068
aF1.70699942111969
aF1.704126238822937
aF1.7030459642410278
aF1.6993746757507324
aF1.6930309534072876
aF1.6921234130859375
aF1.6865431070327759
aF1.6869829893112183
aF1.6853601932525635
aF1.6831101179122925
aF1.6851180791854858
aF1.6816189289093018
aF1.6820900440216064
aF1.6830658912658691
aF1.6847622394561768
aF1.6814831495285034
aF1.6814719438552856
aF1.6798512935638428
aF1.6774331331253052
aF1.677367925643921
aF1.6767058372497559
aF1.6784555912017822
aF1.679254412651062
aF1.6775439977645874
aF1.681304693222046
aF1.6654314994812012
aF1.6698967218399048
aF1.66970956325531
aF1.674194097518921
aF1.6749993562698364
aF1.6778980493545532
aF1.684715986251831
aF1.6836113929748535
aF1.6857988834381104
aF1.6868990659713745
aF1.6901427507400513
aF1.693751573562622
aF1.694495677947998
aF1.6935452222824097
aF1.6943732500076294
aF1.6945064067840576
aF1.6960101127624512
aF1.694473147392273
aF1.6935442686080933
aF1.692781925201416
aF1.682753562927246
aF1.6785502433776855
aF1.678505778312683
aF1.6753063201904297
aF1.6733593940734863
aF1.6709257364273071
aF1.6650956869125366
aF1.6596200466156006
aF1.6596258878707886
aF1.656976580619812
aF1.653477668762207
aF1.6487319469451904
aF1.6462018489837646
aF1.640902042388916
aF1.6421700716018677
aF1.6444183588027954
aF1.6455090045928955
aF1.6419020891189575
aF1.6406089067459106
aF1.6416099071502686
aF1.6412410736083984
aF1.6355388164520264
aF1.632373332977295
aF1.6298130750656128
aF1.6289451122283936
aF1.6277297735214233
aF1.630224347114563
aF1.6341254711151123
aF1.6446874141693115
aF1.6513653993606567
aF1.6514531373977661
aF1.659909963607788
aF1.6608537435531616
aF1.6610851287841797
aF1.660928726196289
aF1.661306619644165
aF1.6591386795043945
aF1.6584734916687012
aF1.6560555696487427
aF1.6570074558258057
aF1.6538870334625244
aF1.6520129442214966
aF1.647966980934143
aF1.6418365240097046
aF1.6342356204986572
aF1.631037950515747
aF1.6267768144607544
aF1.6244401931762695
aF1.6427733898162842
aF1.6457260847091675
aF1.6437093019485474
aF1.6425610780715942
aF1.6402593851089478
aF1.640085220336914
aF1.6436007022857666
aF1.6870758533477783
aF1.6962482929229736
aF1.6921478509902954
aF1.735744595527649
aF1.8063580989837646
aF1.8715318441390991
aF1.9527146816253662
aF2.0667173862457275
aF2.1476848125457764
aF2.2593390941619873
aF2.3332064151763916
aF2.410037040710449
aF2.483518600463867
aF2.5814664363861084
aF2.598836660385132
aF2.6109156608581543
aF2.644198179244995
aF2.6913607120513916
aF2.7607812881469727
aF2.806530237197876
aF2.8469934463500977
aF2.944094181060791
aF2.99787974357605
aF3.075101137161255
aF3.1159403324127197
aF3.1168222427368164
aF3.12433123588562
aF3.1382765769958496
aF-3.1183488368988037
aF-3.1213479042053223
aF-3.1310315132141113
aF-3.127887725830078
aF-3.104870080947876
aF-3.103806257247925
aF-3.1037914752960205
aF-3.1033003330230713
aF-3.099863290786743
aF-3.1016762256622314
aF-3.0975112915039062
aF-3.097949743270874
aF-3.092698335647583
aF-3.0861449241638184
aF-3.036841869354248
aF-2.990709066390991
aF-2.999696731567383
aF-2.9471328258514404
aF-2.849973440170288
aF-2.8060691356658936
aF-2.815913677215576
aF-2.8216001987457275
aF-2.8268465995788574
aF-2.835232973098755
aF-2.8376739025115967
aF-2.836737871170044
aF-2.830418109893799
aF-2.83142352104187
aF-2.830106496810913
aF-2.838413953781128
aF-2.8375046253204346
aF-2.8408892154693604
aF-2.839042901992798
aF-2.83426570892334
aF-2.828843116760254
aF-2.82822322845459
aF-2.827676296234131
aF-2.830639362335205
aF-2.842471122741699
aF-2.855111837387085
aF-2.855130910873413
aF-2.8553125858306885
aF-2.8530147075653076
aF-2.853020668029785
aF-2.8540756702423096
aF-2.8524370193481445
aF-2.8525471687316895
aF-2.8422555923461914
aF-2.841705322265625
aF-2.8404033184051514
aF-2.8425819873809814
aF-2.8336963653564453
aF-2.845529317855835
aF-2.8439908027648926
aF-2.8411498069763184
aF-2.835747003555298
aF-2.83365797996521
aF-2.8309335708618164
aF-2.8265602588653564
aF-2.8210060596466064
aF-2.820052146911621
aF-2.8171274662017822
aF-2.8174827098846436
aF-2.8184432983398438
aF-2.8297760486602783
aF-2.8364944458007812
aF-2.8446757793426514
aF-2.851163864135742
aF-2.854278802871704
aF-2.8565704822540283
aF-2.8615288734436035
aF-2.8604414463043213
aF-2.8601181507110596
aF-2.858102798461914
aF-2.823641777038574
aF-2.7949318885803223
aF-2.779353141784668
aF-2.785158157348633
aF-2.78405499458313
aF-2.7879960536956787
aF-2.784261465072632
aF-2.7448794841766357
aF-2.7100601196289062
aF-2.689887046813965
aF-2.633601665496826
aF-2.5723702907562256
aF-2.5140540599823
aF-2.3901188373565674
aF-2.253614664077759
aF-2.2049801349639893
aF-2.1227145195007324
aF-2.0203144550323486
aF-1.9726709127426147
aF-1.8420779705047607
aF-1.7306666374206543
aF-1.6546467542648315
aF-1.563655972480774
aF-1.4798009395599365
aF-1.4346554279327393
aF-1.4315818548202515
aF-1.4300578832626343
aF-1.4310768842697144
aF-1.4327319860458374
aF-1.4342540502548218
aF-1.4354215860366821
aF-1.4449433088302612
aF-1.4675613641738892
aF-1.4787921905517578
aF-1.5132821798324585
aF-1.5395257472991943
aF-1.5586516857147217
aF-1.5831035375595093
aF-1.6027363538742065
aF-1.6017431020736694
aF-1.672158122062683
aF-1.6792773008346558
aF-1.6774052381515503
aF-1.6755797863006592
aF-1.6739623546600342
aF-1.6738561391830444
aF-1.6716885566711426
aF-1.6676255464553833
aF-1.66812264919281
aF-1.6696925163269043
aF-1.671156644821167
aF-1.6694881916046143
aF-1.6709109544754028
aF-1.6694824695587158
aF-1.6729230880737305
aF-1.672263741493225
aF-1.6732118129730225
aF-1.6726974248886108
aF-1.6709964275360107
aF-1.6644355058670044
aF-1.6651142835617065
aF-1.6664639711380005
aF-1.6717040538787842
aF-1.6718798875808716
aF-1.6710995435714722
aF-1.6715117692947388
aF-1.6707278490066528
aF-1.6714824438095093
aF-1.6716694831848145
aF-1.6798676252365112
aF-1.6874219179153442
aF-1.6932382583618164
aF-1.6948941946029663
aF-1.6993017196655273
aF-1.6897414922714233
aF-1.688932180404663
aF-1.679805874824524
aF-1.6206680536270142
aF-1.5789635181427002
aF-1.5706807374954224
aF-1.5679792165756226
aF-1.5714796781539917
aF-1.580651879310608
aF-1.5831371545791626
aF-1.5924084186553955
aF-1.5923415422439575
aF-1.5905327796936035
aF-1.5963642597198486
aF-1.5969667434692383
aF-1.6033164262771606
aF-1.6050273180007935
aF-1.6021639108657837
aF-1.6030452251434326
aF-1.603514313697815
aF-1.6034541130065918
aF-1.5984247922897339
aF-1.5955146551132202
aF-1.5922812223434448
aF-1.5913221836090088
aF-1.5877279043197632
aF-1.5883759260177612
aF-1.6024492979049683
aF-1.6146836280822754
aF-1.6128588914871216
aF-1.6088910102844238
aF-1.624016284942627
aF-1.6205945014953613
aF-1.6208683252334595
aF-1.6201413869857788
aF-1.6230645179748535
aF-1.6514182090759277
aF-1.6766899824142456
aF-1.675492286682129
aF-1.680384874343872
aF-1.6824885606765747
aF-1.6845260858535767
aF-1.6838425397872925
aF-1.6847277879714966
aF-1.6837260723114014
aF-1.6833255290985107
aF-1.6877915859222412
aF-1.6961418390274048
aF-1.6996670961380005
aF-1.696197271347046
aF-1.6760640144348145
aF-1.6702090501785278
aF-1.6703455448150635
aF-1.6670966148376465
aF-1.6691715717315674
aF-1.6718735694885254
aF-1.6770445108413696
aF-1.685523271560669
aF-1.6864603757858276
aF-1.6986953020095825
aF-1.7171517610549927
aF-1.7195252180099487
aF-1.7267221212387085
aF-1.7292505502700806
aF-1.7319555282592773
aF-1.7359479665756226
aF-1.739277720451355
aF-1.7430527210235596
aF-1.7449603080749512
aF-1.7448046207427979
aF-1.7428754568099976
aF-1.741455078125
aF-1.7414520978927612
aF-1.7399146556854248
aF-1.7484211921691895
aF-1.7598397731781006
aF-1.7690014839172363
aF-1.7785054445266724
aF-1.7892249822616577
aF-1.7932934761047363
aF-1.7911194562911987
aF-1.7761716842651367
aF-1.762673020362854
aF-1.749717354774475
aF-1.736205816268921
aF-1.7360255718231201
aF-1.7360422611236572
aF-1.7390780448913574
aF-1.7505720853805542
aF-1.755570650100708
aF-1.7616653442382812
aF-1.7734662294387817
aF-1.779046893119812
aF-1.7814280986785889
aF-1.7832930088043213
aF-1.7857587337493896
aF-1.794488549232483
aF-1.796382188796997
aF-1.8019177913665771
aF-1.8028074502944946
aF-1.8001717329025269
aF-1.8000787496566772
aF-1.7957637310028076
aF-1.7970597743988037
aF-1.7998241186141968
aF-1.8121742010116577
aF-1.7962744235992432
aF-1.7800465822219849
aF-1.7645825147628784
aF-1.7456992864608765
aF-1.7088059186935425
aF-1.6637001037597656
aF-1.619821548461914
aF-1.5843430757522583
aF-1.5338516235351562
aF-1.4807806015014648
aF-1.4558570384979248
aF-1.420432686805725
aF-1.3852940797805786
aF-1.3086837530136108
aF-1.25551438331604
aF-1.1873615980148315
aF-1.137784719467163
aF-1.0888824462890625
aF-1.0121978521347046
aF-0.9570502638816833
aF-0.8760192394256592
aF-0.8233679533004761
aF-0.7748211026191711
aF-0.7268363237380981
aF-0.6896417140960693
aF-0.6947966814041138
aF-0.6946794986724854
aF-0.6968730092048645
aF-0.6975614428520203
aF-0.6923498511314392
aF-0.6748252511024475
aF-0.6714516282081604
aF-0.6696528792381287
aF-0.6746501326560974
aF-0.6712594032287598
aF-0.6641814112663269
aF-0.6594445109367371
aF-0.6555764675140381
aF-0.6520628929138184
aF-0.6099030375480652
aF-0.49075743556022644
aF-0.43459343910217285
aF-0.41255512833595276
aF-0.4052448272705078
aF-0.36467546224594116
aF-0.3415045440196991
aF-0.34330514073371887
aF-0.3389561176300049
aF-0.3370065689086914
aF-0.33666157722473145
aF-0.33652737736701965
aF-0.3364986479282379
aF-0.3367200493812561
aF-0.33778810501098633
aF-0.33611011505126953
aF-0.33611011505126953
aF-0.33634164929389954
aF-0.3365199863910675
aF-0.32470202445983887
aF-0.3139386475086212
aF-0.30481207370758057
aF-0.28120166063308716
aF-0.2593156099319458
aF-0.23431983590126038
aF-0.22389255464076996
aF-0.23778554797172546
aF-0.2456677407026291
aF-0.2507449984550476
aF-0.25813257694244385
aF-0.256479412317276
aF-0.25945621728897095
aF-0.2513694167137146
aF-0.2447243183851242
aF-0.23906712234020233
aF-0.22839607298374176
aF-0.23042608797550201
aF-0.20822298526763916
aF-0.12429722398519516
aF-0.09395891427993774
aF-0.10305732488632202
aF-0.10656696557998657
aF-0.12418195605278015
aF-0.16322772204875946
aF-0.1605965942144394
aF-0.16159687936306
aF-0.16346019506454468
aF-0.16500496864318848
aF-0.16617374122142792
aF-0.16663601994514465
aF-0.1676194816827774
aF-0.167311429977417
aF-0.16711083054542542
aF-0.16999846696853638
aF-0.169529527425766
aF-0.17404060065746307
aF-0.17440980672836304
aF-0.17499476671218872
aF-0.17586657404899597
aF-0.1760377287864685
aF-0.1759931594133377
aF-0.16867978870868683
aF-0.1603739708662033
aF-0.1510334312915802
aF-0.1479438990354538
aF-0.154092937707901
aF-0.15850844979286194
aF-0.15935471653938293
aF-0.16261321306228638
aF-0.16914011538028717
aF-0.1734469085931778
aF-0.18353895843029022
aF-0.18611210584640503
aF-0.19258524477481842
asS'x'
p9
(lp10
F11.268743515014648
aF11.245268821716309
aF11.269984245300293
aF11.268512725830078
aF11.269726753234863
aF11.268596649169922
aF11.241933822631836
aF11.241933822631836
aF11.196459770202637
aF11.17577838897705
aF11.158782958984375
aF11.130850791931152
aF11.130850791931152
aF11.126850128173828
aF11.126839637756348
aF11.131797790527344
aF11.134391784667969
aF11.13614273071289
aF11.137907981872559
aF11.137947082519531
aF11.14299201965332
aF11.146602630615234
aF11.146180152893066
aF11.149206161499023
aF11.175975799560547
aF11.207819938659668
aF11.250397682189941
aF11.294999122619629
aF11.351903915405273
aF11.383443832397461
aF11.428864479064941
aF11.47056770324707
aF11.513570785522461
aF11.553018569946289
aF11.576193809509277
aF11.656905174255371
aF11.694583892822266
aF11.738835334777832
aF11.826590538024902
aF11.871333122253418
aF11.934337615966797
aF12.005859375
aF12.046706199645996
aF12.110623359680176
aF12.15521240234375
aF12.200438499450684
aF12.268967628479004
aF12.315512657165527
aF12.381158828735352
aF12.426795959472656
aF12.471936225891113
aF12.542115211486816
aF12.587560653686523
aF12.652387619018555
aF12.695233345031738
aF12.73834228515625
aF12.8043794631958
aF12.84361457824707
aF12.904499053955078
aF12.964940071105957
aF13.000158309936523
aF13.05188274383545
aF13.0863037109375
aF13.14548110961914
aF13.19743537902832
aF13.235185623168945
aF13.280352592468262
aF13.334498405456543
aF13.39037799835205
aF13.478170394897461
aF13.559906959533691
aF13.639527320861816
aF13.666418075561523
aF13.74960708618164
aF13.806415557861328
aF13.892009735107422
aF13.947022438049316
aF14.060371398925781
aF14.116949081420898
aF14.175275802612305
aF14.2311372756958
aF14.289048194885254
aF14.377490997314453
aF14.4672212600708
aF14.518207550048828
aF14.551358222961426
aF14.55136489868164
aF14.545875549316406
aF14.548503875732422
aF14.550580978393555
aF14.55154037475586
aF14.556391716003418
aF14.562966346740723
aF14.580314636230469
aF14.606337547302246
aF14.650382995605469
aF14.675549507141113
aF14.714832305908203
aF14.732644081115723
aF14.787492752075195
aF14.861100196838379
aF14.877593994140625
aF14.929730415344238
aF14.983485221862793
aF15.020432472229004
aF15.0586519241333
aF15.138541221618652
aF15.185534477233887
aF15.243058204650879
aF15.268224716186523
aF15.313803672790527
aF15.437356948852539
aF15.461727142333984
aF15.515083312988281
aF15.566328048706055
aF15.64508056640625
aF15.699326515197754
aF15.753100395202637
aF15.86199951171875
aF15.890887260437012
aF15.947537422180176
aF16.003454208374023
aF16.058069229125977
aF16.112564086914062
aF16.193592071533203
aF16.273244857788086
aF16.327770233154297
aF16.408687591552734
aF16.46562385559082
aF16.51930046081543
aF16.548192977905273
aF16.628782272338867
aF16.710111618041992
aF16.79134750366211
aF16.845291137695312
aF16.898035049438477
aF16.952390670776367
aF17.00484275817871
aF17.031604766845703
aF17.111997604370117
aF17.16600227355957
aF17.24919891357422
aF17.30255126953125
aF17.378215789794922
aF17.457422256469727
aF17.50539779663086
aF17.578563690185547
aF17.624229431152344
aF17.690914154052734
aF17.73821449279785
aF17.784500122070312
aF17.85541343688965
aF17.923297882080078
aF17.968673706054688
aF18.036998748779297
aF18.07908821105957
aF18.147043228149414
aF18.192556381225586
aF18.237516403198242
aF18.303770065307617
aF18.370084762573242
aF18.412212371826172
aF18.4736385345459
aF18.53754234313965
aF18.577741622924805
aF18.66368865966797
aF18.70458984375
aF18.746509552001953
aF18.804367065429688
aF18.865934371948242
aF18.907033920288086
aF18.99040985107422
aF19.01091766357422
aF19.051847457885742
aF19.092304229736328
aF19.150707244873047
aF19.21794891357422
aF19.27713394165039
aF19.317663192749023
aF19.389331817626953
aF19.4700984954834
aF19.553573608398438
aF19.553573608398438
aF19.637012481689453
aF19.692384719848633
aF19.803010940551758
aF19.860206604003906
aF19.91732406616211
aF20.048620223999023
aF20.1217041015625
aF20.227886199951172
aF20.302038192749023
aF20.385501861572266
aF20.47875213623047
aF20.549509048461914
aF20.610456466674805
aF20.748231887817383
aF20.813884735107422
aF20.87158203125
aF20.937482833862305
aF21.002300262451172
aF21.0996150970459
aF21.226268768310547
aF21.287416458129883
aF21.348186492919922
aF21.43438148498535
aF21.513341903686523
aF21.565759658813477
aF21.644441604614258
aF21.69915199279785
aF21.753459930419922
aF21.831188201904297
aF21.8799991607666
aF21.947647094726562
aF21.997495651245117
aF22.059778213500977
aF22.09534454345703
aF22.098588943481445
aF22.120901107788086
aF22.15765953063965
aF22.165611267089844
aF22.1868839263916
aF22.19457244873047
aF22.22174644470215
aF22.256399154663086
aF22.279809951782227
aF22.318105697631836
aF22.33447265625
aF22.351329803466797
aF22.375486373901367
aF22.38946533203125
aF22.405149459838867
aF22.426607131958008
aF22.441822052001953
aF22.470609664916992
aF22.482576370239258
aF22.505502700805664
aF22.531347274780273
aF22.552448272705078
aF22.56743621826172
aF22.571928024291992
aF22.58184242248535
aF22.5905704498291
aF22.611257553100586
aF22.620038986206055
aF22.6331729888916
aF22.654949188232422
aF22.684154510498047
aF22.705646514892578
aF22.720726013183594
aF22.732580184936523
aF22.74718475341797
aF22.75732421875
aF22.772510528564453
aF22.77715492248535
aF22.7913875579834
aF22.812467575073242
aF22.826387405395508
aF22.837156295776367
aF22.849193572998047
aF22.855445861816406
aF22.872243881225586
aF22.868181228637695
aF22.887121200561523
aF22.906160354614258
aF22.91608238220215
aF22.928712844848633
aF22.9383602142334
aF22.958118438720703
aF22.969717025756836
aF22.9893741607666
aF23.000593185424805
aF23.012222290039062
aF23.034534454345703
aF23.0463924407959
aF23.066455841064453
aF23.101736068725586
aF23.12804412841797
aF23.140094757080078
aF23.151453018188477
aF23.152090072631836
aF23.146484375
aF23.146825790405273
aF23.155284881591797
aF23.1468505859375
aF23.14190673828125
aF23.126508712768555
aF23.118669509887695
aF23.113561630249023
aF23.100969314575195
aF23.090177536010742
aF23.074010848999023
aF23.064102172851562
aF23.047534942626953
aF23.0281925201416
aF23.024333953857422
aF23.001998901367188
aF22.98126983642578
aF22.965408325195312
aF22.932048797607422
aF22.91192054748535
aF22.895410537719727
aF22.879770278930664
aF22.850238800048828
aF22.838041305541992
aF22.823057174682617
aF22.804540634155273
aF22.787038803100586
aF22.783788681030273
aF22.76861572265625
aF22.75017738342285
aF22.733736038208008
aF22.71181869506836
aF22.691326141357422
aF22.667695999145508
aF22.650924682617188
aF22.630212783813477
aF22.606576919555664
aF22.590791702270508
aF22.570768356323242
aF22.559654235839844
aF22.552684783935547
aF22.544931411743164
aF22.549976348876953
aF22.565702438354492
aF22.568771362304688
aF22.568832397460938
aF22.602529525756836
aF22.569791793823242
aF22.56585121154785
aF22.558147430419922
aF22.553434371948242
aF22.558080673217773
aF22.561786651611328
aF22.565954208374023
aF22.566770553588867
aF22.569093704223633
aF22.575904846191406
aF22.586030960083008
aF22.58914566040039
aF22.590356826782227
aF22.5965518951416
aF22.601600646972656
aF22.609006881713867
aF22.61058807373047
aF22.608116149902344
aF22.605764389038086
aF22.6040096282959
aF22.59808349609375
aF22.597057342529297
aF22.591733932495117
aF22.58423614501953
aF22.581315994262695
aF22.57294464111328
aF22.567800521850586
aF22.561382293701172
aF22.549623489379883
aF22.53826904296875
aF22.529748916625977
aF22.523279190063477
aF22.51360511779785
aF22.51629066467285
aF22.51586151123047
aF22.518234252929688
aF22.522905349731445
aF22.521146774291992
aF22.525165557861328
aF22.535173416137695
aF22.535438537597656
aF22.544723510742188
aF22.541872024536133
aF22.53658676147461
aF22.53232192993164
aF22.528234481811523
aF22.520248413085938
aF22.510873794555664
aF22.49970245361328
aF22.471830368041992
aF22.454811096191406
aF22.430490493774414
aF22.411277770996094
aF22.398515701293945
aF22.375843048095703
aF22.353090286254883
aF22.3371639251709
aF22.300048828125
aF22.27420425415039
aF22.262670516967773
aF22.255067825317383
aF22.263025283813477
aF22.261510848999023
aF22.263967514038086
aF22.267728805541992
aF22.264747619628906
aF22.270645141601562
aF22.274391174316406
aF22.277849197387695
aF22.29656982421875
aF22.310680389404297
aF22.323747634887695
aF22.330381393432617
aF22.326793670654297
aF22.322038650512695
aF22.3131103515625
aF22.30661392211914
aF22.300390243530273
aF22.289932250976562
aF22.278244018554688
aF22.27492904663086
aF22.265300750732422
aF22.257444381713867
aF22.24868392944336
aF22.236772537231445
aF22.225725173950195
aF22.219018936157227
aF22.206039428710938
aF22.192575454711914
aF22.17969512939453
aF22.169334411621094
aF22.1634521484375
aF22.159936904907227
aF22.152233123779297
aF22.144620895385742
aF22.137968063354492
aF22.131322860717773
aF22.124900817871094
aF22.117856979370117
aF22.11199378967285
aF22.093334197998047
aF22.0888614654541
aF22.077709197998047
aF22.073505401611328
aF22.068056106567383
aF22.058547973632812
aF22.053937911987305
aF22.051502227783203
aF22.039794921875
aF22.038301467895508
aF22.0330810546875
aF22.042787551879883
aF22.04134750366211
aF22.037914276123047
aF22.03704261779785
aF22.02541732788086
aF22.020530700683594
aF22.01129722595215
aF22.005762100219727
aF22.00653839111328
aF22.004716873168945
aF22.005884170532227
aF22.0073299407959
aF22.009143829345703
aF22.00267791748047
aF22.003145217895508
aF21.991971969604492
aF21.989002227783203
aF21.98446273803711
aF21.97643280029297
aF21.972227096557617
aF21.972339630126953
aF21.966577529907227
aF21.963794708251953
aF21.94556427001953
aF21.92706298828125
aF21.913022994995117
aF21.888389587402344
aF21.873126983642578
aF21.870885848999023
aF21.861474990844727
aF21.85625648498535
aF21.856481552124023
aF21.850326538085938
aF21.8443660736084
aF21.83379364013672
aF21.82205581665039
aF21.81182289123535
aF21.80728530883789
aF21.803760528564453
aF21.797351837158203
aF21.795391082763672
aF21.785146713256836
aF21.779277801513672
aF21.772626876831055
aF21.77121353149414
aF21.760517120361328
aF21.740602493286133
aF21.73187828063965
aF21.689109802246094
aF21.669836044311523
aF21.66033363342285
aF21.631118774414062
aF21.608074188232422
aF21.59524154663086
aF21.58263397216797
aF21.567028045654297
aF21.557266235351562
aF21.5576229095459
aF21.549365997314453
aF21.540956497192383
aF21.530929565429688
aF21.514877319335938
aF21.5004940032959
aF21.490345001220703
aF21.483518600463867
aF21.474851608276367
aF21.469648361206055
aF21.469343185424805
aF21.456405639648438
aF21.453716278076172
aF21.442426681518555
aF21.433429718017578
aF21.42514419555664
aF21.413585662841797
aF21.403053283691406
aF21.399574279785156
aF21.392160415649414
aF21.386613845825195
aF21.376375198364258
aF21.363445281982422
aF21.370450973510742
aF21.3706111907959
aF21.352373123168945
aF21.345741271972656
aF21.3105411529541
aF21.299060821533203
aF21.252086639404297
aF21.222942352294922
aF21.15081024169922
aF21.06377601623535
aF20.968515396118164
aF20.911630630493164
aF20.822107315063477
aF20.733783721923828
aF20.671621322631836
aF20.60755157470703
aF20.466083526611328
aF20.393062591552734
aF20.288976669311523
aF20.189424514770508
aF20.123430252075195
aF20.025869369506836
aF19.964319229125977
aF19.871274948120117
aF19.793107986450195
aF19.742664337158203
aF19.650253295898438
aF19.586406707763672
aF19.4700984954834
aF19.420515060424805
aF19.354825973510742
aF19.273914337158203
aF19.22303581237793
aF19.10272979736328
aF19.038589477539062
aF18.973831176757812
aF18.87963104248047
aF18.785560607910156
aF18.72987937927246
aF18.620750427246094
aF18.532764434814453
aF18.447364807128906
aF18.39168357849121
aF18.310440063476562
aF18.227787017822266
aF18.163663864135742
aF18.064544677734375
aF17.968273162841797
aF17.905393600463867
aF17.844058990478516
aF17.780780792236328
aF17.649429321289062
aF17.541767120361328
aF17.505455017089844
aF17.356746673583984
aF17.28356170654297
aF17.21092414855957
aF17.064231872558594
aF16.916282653808594
aF16.84706687927246
aF16.776758193969727
aF16.671215057373047
aF16.533998489379883
aF16.497459411621094
aF16.38933753967285
aF16.296825408935547
aF16.205656051635742
aF16.163650512695312
aF16.064409255981445
aF15.96557331085205
aF15.908172607421875
aF15.80443000793457
aF15.697044372558594
aF15.617700576782227
aF15.504903793334961
aF15.389245986938477
aF15.314020156860352
aF15.204930305480957
aF15.096142768859863
aF14.982898712158203
aF14.944846153259277
aF14.799795150756836
aF14.726306915283203
aF14.655862808227539
aF14.585894584655762
aF14.479151725769043
aF14.37236213684082
aF14.301521301269531
aF14.19399642944336
aF14.085986137390137
aF14.010990142822266
aF13.903922080993652
aF13.79540729522705
aF13.722698211669922
aF13.650712013244629
aF13.579825401306152
aF13.473437309265137
aF13.367366790771484
aF13.293269157409668
aF13.222811698913574
aF13.116873741149902
aF13.048009872436523
aF12.936578750610352
aF12.869760513305664
aF12.761896133422852
aF12.643446922302246
aF12.567281723022461
aF12.465797424316406
aF12.364234924316406
aF12.289475440979004
aF12.206441879272461
aF12.081782341003418
aF12.006481170654297
aF11.958391189575195
aF11.86338996887207
aF11.800336837768555
aF11.70981216430664
aF11.682760238647461
aF11.624146461486816
aF11.607868194580078
aF11.6173095703125
aF11.60830307006836
aF11.633112907409668
aF11.65024185180664
aF11.667896270751953
aF11.684168815612793
aF11.690528869628906
aF11.701674461364746
aF11.71744155883789
aF11.759777069091797
aF11.777759552001953
aF11.791842460632324
aF11.804071426391602
aF11.823267936706543
aF11.85147476196289
aF11.857141494750977
aF11.855621337890625
aF11.851326942443848
aF11.854358673095703
aF11.842663764953613
aF11.829368591308594
aF11.814955711364746
aF11.805621147155762
aF11.791756629943848
aF11.7866792678833
aF11.773595809936523
aF11.757816314697266
aF11.746576309204102
aF11.74162483215332
aF11.734823226928711
aF11.730259895324707
aF11.720561981201172
aF11.710793495178223
aF11.700993537902832
aF11.689640045166016
aF11.666474342346191
aF11.650915145874023
aF11.644767761230469
aF11.626540184020996
aF11.60466194152832
aF11.5963716506958
aF11.568509101867676
aF11.56136703491211
aF11.566938400268555
aF11.556417465209961
aF11.529572486877441
aF11.544778823852539
aF11.541828155517578
aF11.531205177307129
aF11.518815040588379
aF11.501354217529297
aF11.493813514709473
aF11.471187591552734
aF11.455035209655762
aF11.439530372619629
aF11.427318572998047
aF11.430990219116211
aF11.429034233093262
aF11.430930137634277
aF11.435147285461426
aF11.439980506896973
aF11.456442832946777
aF11.462043762207031
aF11.461786270141602
aF11.469677925109863
aF11.469023704528809
aF11.465450286865234
aF11.461706161499023
aF11.460497856140137
aF11.458017349243164
aF11.45533561706543
aF11.44879150390625
aF11.438079833984375
aF11.430708885192871
aF11.426000595092773
aF11.420612335205078
aF11.408247947692871
aF11.407527923583984
aF11.41508674621582
aF11.408758163452148
aF11.402260780334473
aF11.400681495666504
aF11.394279479980469
aF11.383796691894531
aF11.379037857055664
aF11.374664306640625
aF11.370802879333496
aF11.372458457946777
aF11.362176895141602
aF11.353755950927734
aF11.343902587890625
aF11.337952613830566
aF11.325967788696289
aF11.310495376586914
aF11.301433563232422
aF11.290767669677734
aF11.277436256408691
aF11.269344329833984
aF11.25781536102295
aF11.2483491897583
aF11.237018585205078
aF11.221370697021484
aF11.214438438415527
aF11.203696250915527
aF11.20337200164795
aF11.200769424438477
aF11.202201843261719
aF11.204517364501953
aF11.202298164367676
aF11.202564239501953
aF11.198107719421387
aF11.181739807128906
aF11.173691749572754
aF11.166059494018555
aF11.157408714294434
aF11.149200439453125
aF11.132944107055664
aF11.119681358337402
aF11.099937438964844
aF11.078948974609375
aF11.074512481689453
aF11.061437606811523
aF11.052730560302734
aF11.039289474487305
aF11.027636528015137
aF11.012150764465332
aF10.989057540893555
aF10.970052719116211
aF10.944299697875977
aF10.920393943786621
aF10.911667823791504
aF10.887944221496582
aF10.879329681396484
aF10.87961196899414
aF10.879375457763672
aF10.885270118713379
aF10.874776840209961
aF10.879476547241211
aF10.874594688415527
aF10.876652717590332
aF10.865835189819336
aF10.857975959777832
aF10.855992317199707
aF10.868538856506348
aF10.868868827819824
aF10.860306739807129
aF10.856999397277832
aF10.841968536376953
aF10.83500862121582
aF10.813485145568848
aF10.794328689575195
aF10.779415130615234
aF10.76197624206543
aF10.752574920654297
aF10.725146293640137
aF10.691084861755371
aF10.64048957824707
aF10.597744941711426
aF10.55740737915039
aF10.509077072143555
aF10.496085166931152
aF10.470351219177246
aF10.449932098388672
aF10.435757637023926
aF10.398716926574707
aF10.388737678527832
aF10.400075912475586
aF10.400527000427246
aF10.409571647644043
aF10.427939414978027
aF10.461905479431152
aF10.490496635437012
aF10.541176795959473
aF10.575599670410156
aF10.60915756225586
aF10.658313751220703
aF10.681318283081055
aF10.695021629333496
aF10.702849388122559
aF10.716448783874512
aF10.729508399963379
aF10.75134563446045
aF10.771709442138672
aF10.788164138793945
aF10.803171157836914
aF10.804622650146484
aF10.821743965148926
aF10.821394920349121
aF10.827253341674805
aF10.840537071228027
aF10.84862995147705
aF10.864083290100098
aF10.868478775024414
aF10.875191688537598
aF10.892038345336914
aF10.90257453918457
aF10.920101165771484
aF10.939133644104004
aF10.956626892089844
aF10.984192848205566
aF11.001474380493164
aF11.024746894836426
aF11.026775360107422
aF11.025129318237305
aF11.024288177490234
aF11.023924827575684
aF11.023737907409668
aF11.023855209350586
aF11.02385139465332
aF11.023726463317871
aF11.024649620056152
aF11.023743629455566
aF11.023743629455566
aF11.023847579956055
aF11.025221824645996
aF11.024514198303223
aF11.025373458862305
aF11.0253324508667
aF11.019505500793457
aF11.021770477294922
aF11.021622657775879
aF11.021890640258789
aF11.023785591125488
aF11.023406028747559
aF11.027168273925781
aF11.02969741821289
aF11.032055854797363
aF11.036535263061523
aF11.037520408630371
aF11.038990020751953
aF11.040318489074707
aF11.041208267211914
aF11.042928695678711
aF11.043164253234863
aF11.047026634216309
aF11.039175033569336
aF11.037344932556152
aF11.026630401611328
aF11.026769638061523
aF11.026291847229004
aF11.025792121887207
aF11.017256736755371
aF11.017586708068848
aF11.01751708984375
aF11.017731666564941
aF11.017681121826172
aF11.0179443359375
aF11.01793098449707
aF11.017977714538574
aF11.01861572265625
aF11.01867961883545
aF11.019984245300293
aF11.019930839538574
aF11.01989459991455
aF11.019844055175781
aF11.019831657409668
aF11.0198335647583
aF11.012717247009277
aF11.01063346862793
aF11.010563850402832
aF11.005471229553223
aF11.009310722351074
aF11.00965690612793
aF11.009604454040527
aF11.011541366577148
aF11.009251594543457
aF11.007373809814453
aF11.003249168395996
aF11.001834869384766
aF10.998490333557129
asba(i__main__
Pose
p11
(dp12
g3
(lp13
F30.01957130432129
aF30.018627166748047
aF30.020423889160156
aF30.0200252532959
aF30.016319274902344
aF30.002593994140625
aF30.0150203704834
aF30.017471313476562
aF30.016586303710938
aF30.018693923950195
aF30.019983291625977
aF30.019081115722656
aF30.02456283569336
aF30.024768829345703
aF30.026309967041016
aF30.027006149291992
aF30.02733612060547
aF30.030994415283203
aF30.03131103515625
aF30.00439453125
aF30.004732131958008
aF30.00450897216797
aF30.00450897216797
aF30.003610610961914
aF30.00288200378418
aF29.995882034301758
aF29.991069793701172
aF29.98640251159668
aF29.982219696044922
aF29.978557586669922
aF29.970603942871094
aF29.968456268310547
aF29.959495544433594
aF29.9537353515625
aF29.950654983520508
aF29.940271377563477
aF29.93379020690918
aF29.925859451293945
aF29.92099380493164
aF29.9171199798584
aF29.910009384155273
aF29.907772064208984
aF29.904939651489258
aF29.89415168762207
aF29.888160705566406
aF29.87440299987793
aF29.865558624267578
aF29.86213493347168
aF29.857107162475586
aF29.84521484375
aF29.835357666015625
aF29.824846267700195
aF29.823936462402344
aF29.815067291259766
aF29.816713333129883
aF29.812711715698242
aF29.80951499938965
aF29.800966262817383
aF29.797439575195312
aF29.781343460083008
aF29.77707290649414
aF29.776657104492188
aF29.772554397583008
aF29.77288246154785
aF29.75749969482422
aF29.753326416015625
aF29.738910675048828
aF29.733917236328125
aF29.712087631225586
aF29.70236587524414
aF29.69911003112793
aF29.681108474731445
aF29.66562843322754
aF29.65677833557129
aF29.652935028076172
aF29.644023895263672
aF29.639732360839844
aF29.62533950805664
aF29.606090545654297
aF29.58936882019043
aF29.57908058166504
aF29.569534301757812
aF29.555526733398438
aF29.550222396850586
aF29.543758392333984
aF29.55050277709961
aF29.55421257019043
aF29.54703712463379
aF29.546905517578125
aF29.54386329650879
aF29.54450035095215
aF29.550405502319336
aF29.549131393432617
aF29.558673858642578
aF29.56881332397461
aF29.55804443359375
aF29.549192428588867
aF29.544248580932617
aF29.533281326293945
aF29.53619956970215
aF29.525341033935547
aF29.52482795715332
aF29.527612686157227
aF29.53350830078125
aF29.538923263549805
aF29.537294387817383
aF29.5342960357666
aF29.535259246826172
aF29.5155086517334
aF29.521041870117188
aF29.51088523864746
aF29.501134872436523
aF29.52305030822754
aF29.520559310913086
aF29.52651023864746
aF29.535558700561523
aF29.548444747924805
aF29.555004119873047
aF29.554134368896484
aF29.543094635009766
aF29.53925895690918
aF29.53318977355957
aF29.529714584350586
aF29.51356315612793
aF29.50359344482422
aF29.488658905029297
aF29.478120803833008
aF29.460878372192383
aF29.444856643676758
aF29.44014549255371
aF29.431154251098633
aF29.41462516784668
aF29.406782150268555
aF29.400318145751953
aF29.394676208496094
aF29.39952278137207
aF29.407634735107422
aF29.411544799804688
aF29.420732498168945
aF29.42426872253418
aF29.43279457092285
aF29.442955017089844
aF29.45886993408203
aF29.475343704223633
aF29.481157302856445
aF29.491313934326172
aF29.515920639038086
aF29.52419090270996
aF29.542444229125977
aF29.547483444213867
aF29.550813674926758
aF29.555625915527344
aF29.561351776123047
aF29.565847396850586
aF29.568754196166992
aF29.56450653076172
aF29.564247131347656
aF29.56159210205078
aF29.552839279174805
aF29.539710998535156
aF29.530141830444336
aF29.507610321044922
aF29.501928329467773
aF29.486961364746094
aF29.46705436706543
aF29.454893112182617
aF29.436307907104492
aF29.424161911010742
aF29.410924911499023
aF29.40305519104004
aF29.388267517089844
aF29.381484985351562
aF29.37152099609375
aF29.361143112182617
aF29.356544494628906
aF29.335798263549805
aF29.32894515991211
aF29.317581176757812
aF29.3043270111084
aF29.305828094482422
aF29.310758590698242
aF29.315330505371094
aF29.317195892333984
aF29.322065353393555
aF29.32488250732422
aF29.32975196838379
aF29.33016014099121
aF29.339874267578125
aF29.344736099243164
aF29.353118896484375
aF29.355958938598633
aF29.3635196685791
aF29.371856689453125
aF29.379478454589844
aF29.384428024291992
aF29.386964797973633
aF29.392372131347656
aF29.403139114379883
aF29.40786361694336
aF29.411415100097656
aF29.43438148498535
aF29.46320343017578
aF29.472408294677734
aF29.49729347229004
aF29.521934509277344
aF29.551074981689453
aF29.599300384521484
aF29.623579025268555
aF29.652603149414062
aF29.723312377929688
aF29.756248474121094
aF29.79482078552246
aF29.834306716918945
aF29.869319915771484
aF29.87581443786621
aF29.87403678894043
aF29.87541389465332
aF29.88020133972168
aF29.888338088989258
aF29.89313316345215
aF29.896278381347656
aF29.906343460083008
aF29.913206100463867
aF29.918699264526367
aF29.9306640625
aF29.943565368652344
aF29.949419021606445
aF29.957763671875
aF29.963274002075195
aF29.968246459960938
aF29.970890045166016
aF29.984432220458984
aF30.006105422973633
aF30.016712188720703
aF30.04303741455078
aF30.051128387451172
aF30.075029373168945
aF30.08336067199707
aF30.113985061645508
aF30.150909423828125
aF30.20219612121582
aF30.295467376708984
aF30.367279052734375
aF30.406749725341797
aF30.448959350585938
aF30.54050636291504
aF30.603952407836914
aF30.6701602935791
aF30.709598541259766
aF30.799604415893555
aF30.844390869140625
aF30.90772819519043
aF30.974590301513672
aF30.99483299255371
aF31.039844512939453
aF31.105024337768555
aF31.173227310180664
aF31.194116592407227
aF31.23532485961914
aF31.327611923217773
aF31.372119903564453
aF31.415163040161133
aF31.482633590698242
aF31.54482650756836
aF31.5888614654541
aF31.676538467407227
aF31.69682502746582
aF31.760772705078125
aF31.822982788085938
aF31.910579681396484
aF31.932893753051758
aF32.041465759277344
aF32.08962631225586
aF32.1347541809082
aF32.218177795410156
aF32.28939437866211
aF32.31248474121094
aF32.38452911376953
aF32.432952880859375
aF32.45436477661133
aF32.53837203979492
aF32.551795959472656
aF32.66244888305664
aF32.74811553955078
aF32.79049301147461
aF32.88761520385742
aF32.959388732910156
aF33.009521484375
aF33.08955001831055
aF33.13576126098633
aF33.20945358276367
aF33.26340103149414
aF33.3721923828125
aF33.401485443115234
aF33.488643646240234
aF33.52134704589844
aF33.653099060058594
aF33.77684020996094
aF33.897342681884766
aF33.95730209350586
aF34.06572341918945
aF34.11296844482422
aF34.18760681152344
aF34.286590576171875
aF34.34568405151367
aF34.43280792236328
aF34.491607666015625
aF34.581329345703125
aF34.671058654785156
aF34.76445388793945
aF34.82674026489258
aF34.946441650390625
aF34.977928161621094
aF35.09617614746094
aF35.15629959106445
aF35.245018005371094
aF35.33818435668945
aF35.39139175415039
aF35.473026275634766
aF35.49702453613281
aF35.54856872558594
aF35.56346893310547
aF35.59065246582031
aF35.60647964477539
aF35.61550521850586
aF35.620784759521484
aF35.616172790527344
aF35.618247985839844
aF35.61809158325195
aF35.618473052978516
aF35.62062072753906
aF35.632877349853516
aF35.637168884277344
aF35.653160095214844
aF35.69086837768555
aF35.709800720214844
aF35.74052810668945
aF35.76786804199219
aF35.78343200683594
aF35.87145233154297
aF35.91254425048828
aF35.959007263183594
aF36.00904083251953
aF36.04096603393555
aF36.08650207519531
aF36.15216827392578
aF36.20560836791992
aF36.27030944824219
aF36.336708068847656
aF36.401432037353516
aF36.44756317138672
aF36.55198287963867
aF36.63579177856445
aF36.66231155395508
aF36.7663688659668
aF36.82597351074219
aF36.91881561279297
aF37.05031204223633
aF37.162288665771484
aF37.311424255371094
aF37.4234733581543
aF37.50092697143555
aF37.57303237915039
aF37.610111236572266
aF37.75654983520508
aF37.86586380004883
aF37.94242858886719
aF38.06206512451172
aF38.176719665527344
aF38.29023742675781
aF38.365074157714844
aF38.4368782043457
aF38.63216018676758
aF38.66921615600586
aF38.77789306640625
aF38.92532730102539
aF38.96687698364258
aF39.0850944519043
aF39.158626556396484
aF39.27480697631836
aF39.3366584777832
aF39.445831298828125
aF39.52197265625
aF39.70646286010742
aF39.821041107177734
aF39.90065002441406
aF40.01300811767578
aF40.16653060913086
aF40.283287048339844
aF40.31747817993164
aF40.39605712890625
aF40.51399612426758
aF40.594783782958984
aF40.740665435791016
aF40.884037017822266
aF40.92197036743164
aF41.032466888427734
aF41.12478256225586
aF41.14252853393555
aF41.15287399291992
aF41.1833381652832
aF41.25017547607422
aF41.273983001708984
aF41.35504150390625
aF41.459285736083984
aF41.53565979003906
aF41.58914566040039
aF41.672630310058594
aF41.731868743896484
aF41.79096603393555
aF41.83259963989258
aF41.87255096435547
aF41.945613861083984
aF41.99534225463867
aF42.0397834777832
aF42.11785888671875
aF42.22584533691406
aF42.24866485595703
aF42.32423782348633
aF42.441287994384766
aF42.48622131347656
aF42.57765579223633
aF42.632869720458984
aF42.69846725463867
aF42.802894592285156
aF42.91630172729492
aF43.023597717285156
aF43.08193588256836
aF43.16382598876953
aF43.212711334228516
aF43.3034553527832
aF43.3460807800293
aF43.40675354003906
aF43.46272277832031
aF43.473899841308594
aF43.540443420410156
aF43.58182144165039
aF43.67738723754883
aF43.69453048706055
aF43.74444580078125
aF43.79977798461914
aF43.825889587402344
aF43.87103271484375
aF43.93656921386719
aF44.032432556152344
aF44.05740737915039
aF44.137351989746094
aF44.217952728271484
aF44.27072525024414
aF44.37456130981445
aF44.4443473815918
aF44.490875244140625
aF44.56449508666992
aF44.635520935058594
aF44.709228515625
aF44.75751876831055
aF44.841182708740234
aF44.904083251953125
aF44.96372985839844
aF45.05357360839844
aF45.20244598388672
aF45.23155975341797
aF45.295040130615234
aF45.40814971923828
aF45.46752166748047
aF45.52848815917969
aF45.64532470703125
aF45.73667526245117
aF45.826698303222656
aF45.91913604736328
aF45.94865417480469
aF46.06359100341797
aF46.11865234375
aF46.18064498901367
aF46.27418899536133
aF46.358673095703125
aF46.4459342956543
aF46.54712677001953
aF46.64535140991211
aF46.78091049194336
aF46.81515121459961
aF46.88319778442383
aF46.98396682739258
aF47.073577880859375
aF47.19252014160156
aF47.320308685302734
aF47.41733169555664
aF47.57975387573242
aF47.63748550415039
aF47.759944915771484
aF47.83485412597656
aF47.928611755371094
aF48.06186294555664
aF48.097537994384766
aF48.157108306884766
aF48.25059127807617
aF48.31461715698242
aF48.435546875
aF48.468448638916016
aF48.59169006347656
aF48.65536117553711
aF48.75790786743164
aF48.8218994140625
aF48.88290786743164
aF48.91596603393555
aF49.084373474121094
aF49.12688446044922
aF49.201995849609375
aF49.30561828613281
aF49.40693283081055
aF49.505210876464844
aF49.57076644897461
aF49.656612396240234
aF49.755592346191406
aF49.8261833190918
aF49.89447784423828
aF49.957881927490234
aF49.983192443847656
aF49.99848175048828
aF50.009544372558594
aF50.05297088623047
aF50.04212951660156
aF50.040367126464844
aF50.11458969116211
aF50.13239288330078
aF50.15599060058594
aF50.242759704589844
aF50.26133728027344
aF50.29360580444336
aF50.315853118896484
aF50.356346130371094
aF50.403236389160156
aF50.42607879638672
aF50.44532012939453
aF50.44957733154297
aF50.454586029052734
aF50.457481384277344
aF50.45069122314453
aF50.443931579589844
aF50.432247161865234
aF50.42900466918945
aF50.42445755004883
aF50.42106628417969
aF50.410736083984375
aF50.40672302246094
aF50.404090881347656
aF50.39570236206055
aF50.391700744628906
aF50.387630462646484
aF50.376956939697266
aF50.36967086791992
aF50.3557014465332
aF50.33844757080078
aF50.30006790161133
aF50.27724838256836
aF50.224876403808594
aF50.19584655761719
aF50.12627029418945
aF50.11539077758789
aF50.047969818115234
aF50.014862060546875
aF49.979347229003906
aF49.92572021484375
aF49.888004302978516
aF49.8381462097168
aF49.79742431640625
aF49.744667053222656
aF49.67027282714844
aF49.642704010009766
aF49.630680084228516
aF49.61355972290039
aF49.5709342956543
aF49.53411102294922
aF49.512081146240234
aF49.480716705322266
aF49.46957778930664
aF49.44462203979492
aF49.397300720214844
aF49.35581588745117
aF49.337242126464844
aF49.29592514038086
aF49.26535415649414
aF49.24299621582031
aF49.21235275268555
aF49.1731071472168
aF49.16210174560547
aF49.12551498413086
aF49.10014724731445
aF49.05482482910156
aF49.03583908081055
aF49.00495910644531
aF48.97157287597656
aF48.948795318603516
aF48.9229850769043
aF48.87881851196289
aF48.85340118408203
aF48.84690856933594
aF48.80352020263672
aF48.785484313964844
aF48.75234603881836
aF48.71733474731445
aF48.69751739501953
aF48.673274993896484
aF48.65583038330078
aF48.64825439453125
aF48.60870361328125
aF48.58250045776367
aF48.557647705078125
aF48.53199768066406
aF48.48030090332031
aF48.46989440917969
aF48.40653610229492
aF48.36920166015625
aF48.340858459472656
aF48.29235076904297
aF48.23039245605469
aF48.211830139160156
aF48.16130447387695
aF48.1185302734375
aF48.08681106567383
aF48.0441780090332
aF47.99277114868164
aF47.906673431396484
aF47.885032653808594
aF47.841453552246094
aF47.74174118041992
aF47.68626022338867
aF47.60419845581055
aF47.544525146484375
aF47.51383590698242
aF47.381038665771484
aF47.238773345947266
aF47.16856384277344
aF47.0600471496582
aF46.99110412597656
aF46.84728240966797
aF46.733760833740234
aF46.622100830078125
aF46.58932876586914
aF46.48088455200195
aF46.37187194824219
aF46.327945709228516
aF46.255374908447266
aF46.111366271972656
aF46.03423309326172
aF45.871551513671875
aF45.83405303955078
aF45.720863342285156
aF45.64543151855469
aF45.58116912841797
aF45.46623611450195
aF45.345829010009766
aF45.26953887939453
aF45.19730758666992
aF45.126380920410156
aF44.974796295166016
aF44.9020881652832
aF44.86699295043945
aF44.67405700683594
aF44.59674835205078
aF44.5189094543457
aF44.40509796142578
aF44.36787414550781
aF44.258453369140625
aF44.14588928222656
aF44.07469177246094
aF43.9586296081543
aF43.854888916015625
aF43.77876281738281
aF43.6323356628418
aF43.561771392822266
aF43.446170806884766
aF43.29735565185547
aF43.255977630615234
aF43.10476303100586
aF43.02690505981445
aF42.91581726074219
aF42.84328079223633
aF42.737972259521484
aF42.66181945800781
aF42.58562469482422
aF42.51213836669922
aF42.32682800292969
aF42.29116439819336
aF42.14025115966797
aF41.98195266723633
aF41.943546295166016
aF41.831329345703125
aF41.71354675292969
aF41.56037521362305
aF41.519535064697266
aF41.37323760986328
aF41.29943084716797
aF41.191226959228516
aF41.11545181274414
aF40.96318817138672
aF40.85155487060547
aF40.77854919433594
aF40.70009994506836
aF40.624977111816406
aF40.54618453979492
aF40.388790130615234
aF40.311073303222656
aF40.27517318725586
aF40.164283752441406
aF40.0113639831543
aF39.969886779785156
aF39.81593322753906
aF39.78352737426758
aF39.67159652709961
aF39.56458282470703
aF39.40817642211914
aF39.33338165283203
aF39.25911331176758
aF39.146949768066406
aF39.112648010253906
aF38.96576690673828
aF38.925048828125
aF38.813053131103516
aF38.740509033203125
aF38.62892150878906
aF38.51005554199219
aF38.438053131103516
aF38.320343017578125
aF38.22315216064453
aF38.14723205566406
aF38.03780746459961
aF37.97343826293945
aF37.86666488647461
aF37.786216735839844
aF37.71794128417969
aF37.645057678222656
aF37.57027816772461
aF37.49525451660156
aF37.35113525390625
aF37.2446174621582
aF37.16657257080078
aF37.09333419799805
aF36.94706344604492
aF36.91047668457031
aF36.79768371582031
aF36.64818572998047
aF36.61408996582031
aF36.50022888183594
aF36.42622375488281
aF36.35357666015625
aF36.205081939697266
aF36.16551208496094
aF36.04996871948242
aF36.0096435546875
aF35.894935607910156
aF35.74977111816406
aF35.67106628417969
aF35.591407775878906
aF35.4459114074707
aF35.374794006347656
aF35.32741928100586
aF35.20933532714844
aF35.060821533203125
aF34.9461555480957
aF34.823001861572266
aF34.74550247192383
aF34.666839599609375
aF34.5847053527832
aF34.46947479248047
aF34.32649612426758
aF34.22129821777344
aF34.14674377441406
aF34.03508377075195
aF33.955169677734375
aF33.918861389160156
aF33.81138229370117
aF33.69663619995117
aF33.59135055541992
aF33.51641082763672
aF33.481666564941406
aF33.37635040283203
aF33.26463317871094
aF33.22834396362305
aF33.11835861206055
aF33.00556182861328
aF32.90258026123047
aF32.82215881347656
aF32.709564208984375
aF32.639137268066406
aF32.55581283569336
aF32.446434020996094
aF32.405616760253906
aF32.25441360473633
aF32.180519104003906
aF32.10757827758789
aF31.999582290649414
aF31.93094825744629
aF31.85344696044922
aF31.849641799926758
aF31.887252807617188
aF31.81561279296875
aF31.741283416748047
aF31.670124053955078
aF31.64826011657715
aF31.616186141967773
aF31.506324768066406
aF31.408395767211914
aF31.335533142089844
aF31.224302291870117
aF31.188697814941406
aF31.080251693725586
aF31.043437957763672
aF30.93927574157715
aF30.841426849365234
aF30.79416847229004
aF30.774154663085938
aF30.758577346801758
aF30.745115280151367
aF30.722787857055664
aF30.68431854248047
aF30.667842864990234
aF30.62352180480957
aF30.581396102905273
aF30.572708129882812
aF30.53382110595703
aF30.507972717285156
aF30.45425033569336
aF30.406078338623047
aF30.388017654418945
aF30.358137130737305
aF30.330615997314453
aF30.271331787109375
aF30.228973388671875
aF30.213069915771484
aF30.16958236694336
aF30.1435604095459
aF30.098432540893555
aF30.057395935058594
aF30.029659271240234
aF30.006263732910156
aF29.96558952331543
aF29.96413803100586
aF29.966285705566406
aF29.971723556518555
aF29.973419189453125
aF29.971742630004883
aF29.969690322875977
aF29.97226905822754
aF29.9689884185791
aF29.966402053833008
aF29.963979721069336
aF29.963695526123047
aF29.961606979370117
aF29.961956024169922
aF29.965055465698242
aF29.95824432373047
aF29.9582462310791
aF29.958166122436523
aF29.957780838012695
aF29.958343505859375
aF29.957839965820312
aF29.960981369018555
aF29.959060668945312
aF29.958629608154297
aF29.964767456054688
aF29.96924591064453
aF29.970935821533203
aF29.979503631591797
aF29.982343673706055
aF29.988161087036133
aF29.996435165405273
aF30.00660514831543
aF30.008350372314453
aF30.011674880981445
aF30.012731552124023
aF30.013879776000977
aF30.011030197143555
aF30.012310028076172
aF30.006925582885742
aF30.006824493408203
aF30.002059936523438
aF30.0095157623291
aF30.005538940429688
aF30.003206253051758
aF30.00786590576172
aF30.004362106323242
aF30.007339477539062
aF30.00794792175293
aF30.007352828979492
aF30.006202697753906
aF30.003347396850586
aF30.004539489746094
aF30.006282806396484
aF30.002229690551758
aF30.002227783203125
aF30.00398063659668
aF30.004558563232422
aF30.00457000732422
aF30.00457000732422
aF30.00225830078125
aF29.999935150146484
aF30.003435134887695
aF29.999391555786133
aF29.999420166015625
aF29.998310089111328
aF29.997220993041992
aF29.997238159179688
aF29.997241973876953
asg5
(lp14
F0.01849675178527832
aF0.11283016204833984
aF0.21781373023986816
aF0.3746297359466553
aF0.5025191307067871
aF0.6217529773712158
aF0.6915700435638428
aF0.8099730014801025
aF0.9376044273376465
aF1.0365715026855469
aF1.10233736038208
aF1.2540647983551025
aF1.3580591678619385
aF1.424405574798584
aF1.554145097732544
aF1.6123785972595215
aF1.7659647464752197
aF1.8756141662597656
aF1.9942224025726318
aF2.1200222969055176
aF2.292602300643921
aF2.4924604892730713
aF2.635756254196167
aF2.813384532928467
aF2.8880362510681152
aF3.069295644760132
aF3.156981945037842
aF3.281064987182617
aF3.377323865890503
aF3.472352981567383
aF3.689375162124634
aF3.760495185852051
aF3.9462223052978516
aF4.007718086242676
aF4.1314308643341064
aF4.268744945526123
aF4.474210977554321
aF4.61767840385437
aF4.732512712478638
aF4.8120787143707275
aF4.98560905456543
aF5.106795072555542
aF5.190019845962524
aF5.374776601791382
aF5.4868574142456055
aF5.670388698577881
aF5.837523698806763
aF5.941434383392334
aF6.080864429473877
aF6.189205169677734
aF6.318827867507935
aF6.394035816192627
aF6.478287935256958
aF6.603084087371826
aF6.762273788452148
aF6.823280096054077
aF6.95980978012085
aF7.126525402069092
aF7.23558497428894
aF7.4298505783081055
aF7.493483543395996
aF7.6743690967559814
aF7.75540828704834
aF7.877767562866211
aF7.990332126617432
aF8.070717334747314
aF8.208466529846191
aF8.277710676193237
aF8.48697018623352
aF8.583958148956299
aF8.685651540756226
aF8.825740337371826
aF8.957871437072754
aF9.076076745986938
aF9.148914098739624
aF9.287538766860962
aF9.420536041259766
aF9.480719566345215
aF9.671930074691772
aF9.823667764663696
aF9.980566501617432
aF10.115611791610718
aF10.171712160110474
aF10.284488916397095
aF10.355086088180542
aF10.517874002456665
aF10.630398273468018
aF10.762842416763306
aF10.888574361801147
aF10.956531286239624
aF11.101624727249146
aF11.149420022964478
aF11.301442861557007
aF11.424992084503174
aF11.553949356079102
aF11.671929836273193
aF11.763298273086548
aF11.90538477897644
aF12.008624076843262
aF12.140507221221924
aF12.271174669265747
aF12.362191677093506
aF12.48864197731018
aF12.553637027740479
aF12.704164743423462
aF12.77785325050354
aF12.961971998214722
aF13.07266116142273
aF13.231821537017822
aF13.351485252380371
aF13.475643396377563
aF13.58356523513794
aF13.699543952941895
aF13.743816375732422
aF13.922047853469849
aF14.017610549926758
aF14.11612057685852
aF14.276758909225464
aF14.357671976089478
aF14.504011631011963
aF14.544770002365112
aF14.693636894226074
aF14.767466306686401
aF14.96620774269104
aF15.084952116012573
aF15.220980882644653
aF15.374127388000488
aF15.488975763320923
aF15.619956254959106
aF15.689758062362671
aF15.818206071853638
aF15.969955921173096
aF16.07247567176819
aF16.163498401641846
aF16.309617042541504
aF16.411378145217896
aF16.570887088775635
aF16.64561414718628
aF16.78430438041687
aF16.893637895584106
aF17.024908542633057
aF17.119338750839233
aF17.24455499649048
aF17.37405300140381
aF17.428232669830322
aF17.56563973426819
aF17.710299968719482
aF17.78560495376587
aF17.974042892456055
aF18.052308320999146
aF18.18141484260559
aF18.30827808380127
aF18.434741497039795
aF18.632505655288696
aF18.726417064666748
aF18.88887929916382
aF18.971925497055054
aF19.035508632659912
aF19.1611545085907
aF19.361143350601196
aF19.47460913658142
aF19.62407159805298
aF19.689455032348633
aF19.839563846588135
aF20.029170036315918
aF20.15361738204956
aF20.282052278518677
aF20.45534920692444
aF20.56173849105835
aF20.672236442565918
aF20.817962884902954
aF20.929800748825073
aF21.017462968826294
aF21.129716157913208
aF21.209076166152954
aF21.451878786087036
aF21.5624783039093
aF21.695486545562744
aF21.822866201400757
aF21.941810131072998
aF22.057886600494385
aF22.218639373779297
aF22.28076457977295
aF22.427009105682373
aF22.543762922286987
aF22.732462644577026
aF22.805372953414917
aF22.987603902816772
aF23.113805532455444
aF23.230812788009644
aF23.28856348991394
aF23.47837781906128
aF23.625075101852417
aF23.718453407287598
aF23.836748123168945
aF23.966596603393555
aF24.10141658782959
aF24.219008445739746
aF24.32581853866577
aF24.40009355545044
aF24.569203853607178
aF24.714483976364136
aF24.8272807598114
aF24.970016717910767
aF25.065139532089233
aF25.237664222717285
aF25.385234117507935
aF25.514309644699097
aF25.5995876789093
aF25.793210983276367
aF25.91739797592163
aF26.010964393615723
aF26.196117639541626
aF26.32592248916626
aF26.4343581199646
aF26.51358413696289
aF26.660845279693604
aF26.81581163406372
aF26.945094347000122
aF27.057244300842285
aF27.12061858177185
aF27.312573432922363
aF27.40220594406128
aF27.531944751739502
aF27.754162549972534
aF27.980202198028564
aF28.112719774246216
aF28.26482629776001
aF28.33986258506775
aF28.443912267684937
aF28.51315999031067
aF28.653059720993042
aF28.751553535461426
aF28.903778791427612
aF29.048465251922607
aF29.11483073234558
aF29.23648738861084
aF29.277603149414062
aF29.43411684036255
aF29.54495072364807
aF29.7415668964386
aF29.97445321083069
aF30.17549157142639
aF30.321011781692505
aF30.39342474937439
aF30.593031406402588
aF30.716702461242676
aF30.913271188735962
aF30.983707904815674
aF31.181524515151978
aF31.325608253479004
aF31.432848691940308
aF31.56403660774231
aF31.635387182235718
aF31.74801993370056
aF31.863735914230347
aF32.02526378631592
aF32.06003665924072
aF32.19762372970581
aF32.382458209991455
aF32.525654554367065
aF32.620121240615845
aF32.737927198410034
aF32.9228413105011
aF32.9822256565094
aF33.18728685379028
aF33.26350522041321
aF33.424919843673706
aF33.570154666900635
aF33.71187615394592
aF33.792338609695435
aF34.00328874588013
aF34.12620782852173
aF34.22177577018738
aF34.41946268081665
aF34.552433252334595
aF34.630961656570435
aF34.7740843296051
aF34.866657733917236
aF34.94540786743164
aF35.091020584106445
aF35.1833016872406
aF35.352264165878296
aF35.47768425941467
aF35.634504079818726
aF35.82652807235718
aF35.97398924827576
aF36.0496928691864
aF36.23869872093201
aF36.329357385635376
aF36.471813678741455
aF36.56007266044617
aF36.71984004974365
aF36.79368734359741
aF36.94939661026001
aF37.037018060684204
aF37.22085881233215
aF37.43440103530884
aF37.641427993774414
aF37.729620933532715
aF37.87252116203308
aF38.0355966091156
aF38.164236545562744
aF38.3329713344574
aF38.435378074645996
aF38.56433725357056
aF38.66194748878479
aF38.83116102218628
aF38.959816694259644
aF39.0692400932312
aF39.2343270778656
aF39.38914442062378
aF39.48721718788147
aF39.671993255615234
aF39.77521276473999
aF39.92532014846802
aF40.066051721572876
aF40.16464114189148
aF40.31125855445862
aF40.40544867515564
aF40.56580710411072
aF40.659850120544434
aF40.83279609680176
aF40.92965745925903
aF41.0045120716095
aF41.1907103061676
aF41.278449058532715
aF41.48560833930969
aF41.57234597206116
aF41.657188415527344
aF41.811211824417114
aF41.9360830783844
aF42.017587423324585
aF42.113510847091675
aF42.27973461151123
aF42.37493085861206
aF42.54287028312683
aF42.613659143447876
aF42.69761252403259
aF42.97567844390869
aF43.09909462928772
aF43.272101402282715
aF43.425371170043945
aF43.53499627113342
aF43.702640771865845
aF43.88356280326843
aF44.05517220497131
aF44.17017960548401
aF44.323875427246094
aF44.484984159469604
aF44.577319383621216
aF44.73111605644226
aF44.87469720840454
aF44.96063041687012
aF45.17978477478027
aF45.26883578300476
aF45.44139814376831
aF45.57812714576721
aF45.794562578201294
aF45.97762894630432
aF46.08004975318909
aF46.22270655632019
aF46.32054829597473
aF46.41068887710571
aF46.58563256263733
aF46.659473180770874
aF46.82747554779053
aF46.98324680328369
aF47.09875845909119
aF47.27548575401306
aF47.33369159698486
aF47.48161697387695
aF47.69214200973511
aF47.76861524581909
aF47.90388202667236
aF48.07594609260559
aF48.16405963897705
aF48.274492025375366
aF48.4113245010376
aF48.57511377334595
aF48.65453362464905
aF48.823370695114136
aF48.91022562980652
aF49.171125650405884
aF49.32346224784851
aF49.40494465827942
aF49.57768535614014
aF49.77743411064148
aF49.90940999984741
aF49.987279415130615
aF50.06958508491516
aF50.226619482040405
aF50.31761837005615
aF50.53452467918396
aF50.6946074962616
aF50.7755446434021
aF50.92332649230957
aF51.02907609939575
aF51.109612464904785
aF51.18739199638367
aF51.32629609107971
aF51.466060161590576
aF51.529571533203125
aF51.666611194610596
aF51.85693907737732
aF52.01996421813965
aF52.107577323913574
aF52.240567445755005
aF52.37963151931763
aF52.49160552024841
aF52.646939754486084
aF52.71250796318054
aF52.82679200172424
aF52.98378348350525
aF53.07756328582764
aF53.22136974334717
aF53.40180540084839
aF53.479639768600464
aF53.617613315582275
aF53.82943272590637
aF53.87837529182434
aF54.05619740486145
aF54.1500928401947
aF54.25489139556885
aF54.39130234718323
aF54.5797860622406
aF54.69642972946167
aF54.82279682159424
aF54.9496169090271
aF55.07422113418579
aF55.22561240196228
aF55.29375886917114
aF55.41754674911499
aF55.590415954589844
aF55.67330479621887
aF55.819477796554565
aF55.921610832214355
aF56.1279182434082
aF56.199483156204224
aF56.3769314289093
aF56.48097109794617
aF56.622735261917114
aF56.711355447769165
aF56.88162970542908
aF57.02308964729309
aF57.08323645591736
aF57.26753640174866
aF57.423704624176025
aF57.51959586143494
aF57.693392515182495
aF57.87064599990845
aF57.958436489105225
aF58.12737727165222
aF58.26704955101013
aF58.42943572998047
aF58.50293707847595
aF58.684754371643066
aF58.77231454849243
aF58.882391691207886
aF59.04192566871643
aF59.21131443977356
aF59.28962063789368
aF59.437639236450195
aF59.630104780197144
aF59.682207107543945
aF59.83437418937683
aF59.954264879226685
aF60.1456139087677
aF60.29280948638916
aF60.424866914749146
aF60.47670364379883
aF60.68161129951477
aF60.83375954627991
aF60.92499399185181
aF61.0259735584259
aF61.22044539451599
aF61.32783246040344
aF61.52155590057373
aF61.63993263244629
aF61.83111596107483
aF61.911128759384155
aF62.0212299823761
aF62.16110062599182
aF62.3132529258728
aF62.516902685165405
aF62.73447275161743
aF62.90797281265259
aF63.1689178943634
aF63.267574310302734
aF63.370306730270386
aF63.53204345703125
aF63.670730113983154
aF63.8088493347168
aF63.88735604286194
aF64.00911474227905
aF64.13227534294128
aF64.25827646255493
aF64.43421292304993
aF64.51063776016235
aF64.70183777809143
aF64.76638913154602
aF64.92981362342834
aF65.02904224395752
aF65.15781593322754
aF65.22716498374939
aF65.38970303535461
aF65.53036594390869
aF65.63150429725647
aF65.81667709350586
aF65.92219734191895
aF66.07171678543091
aF66.19528937339783
aF66.3392436504364
aF66.46426129341125
aF66.60392141342163
aF66.70111632347107
aF66.81072688102722
aF66.92873048782349
aF67.03524971008301
aF67.12518548965454
aF67.26675033569336
aF67.32150626182556
aF67.5076973438263
aF67.69761729240417
aF67.74494075775146
aF67.91761994361877
aF68.08458805084229
aF68.14164853096008
aF68.3312578201294
aF68.42161536216736
aF68.60409951210022
aF68.7520182132721
aF68.88161277770996
aF69.02745389938354
aF69.10264182090759
aF69.29502606391907
aF69.39984130859375
aF69.55443572998047
aF69.73217105865479
aF69.88352251052856
aF69.95799493789673
aF70.13839626312256
aF70.21788024902344
aF70.41162943840027
aF70.51361560821533
aF70.61426520347595
aF70.77567887306213
aF70.95349621772766
aF71.04372549057007
aF71.23198699951172
aF71.34366154670715
aF71.44388842582703
aF71.55080366134644
aF71.73615860939026
aF71.8378267288208
aF72.08081197738647
aF72.1854248046875
aF72.37965273857117
aF72.47476625442505
aF72.63055920600891
aF72.7757477760315
aF72.86561179161072
aF72.97326612472534
aF73.11385226249695
aF73.27914333343506
aF73.32768368721008
aF73.51484632492065
aF73.68189096450806
aF73.83702492713928
aF73.92357277870178
aF74.02161884307861
aF74.20087933540344
aF74.3633246421814
aF74.46105027198792
aF74.61289978027344
aF74.70237183570862
aF74.79773116111755
aF74.97952723503113
aF75.16163563728333
aF75.23106098175049
aF75.47945141792297
aF75.62089538574219
aF75.70166420936584
aF75.87601661682129
aF76.05676531791687
aF76.11007833480835
aF76.29120898246765
aF76.39362406730652
aF76.55946254730225
aF76.67172503471375
aF76.79769015312195
aF76.96625971794128
aF77.06990671157837
aF77.1999089717865
aF77.37311339378357
aF77.50863814353943
aF77.59756422042847
aF77.7535297870636
aF77.85540580749512
aF78.01259136199951
aF78.17181921005249
aF78.27190208435059
aF78.35038948059082
aF78.45207047462463
aF78.56029105186462
aF78.75364661216736
aF78.89222812652588
aF79.03006958961487
aF79.16457223892212
aF79.2986843585968
aF79.36318707466125
aF79.57160496711731
aF79.67942309379578
aF79.83492016792297
aF79.94997596740723
aF80.09494853019714
aF80.16396880149841
aF80.3416678905487
aF80.47360634803772
aF80.571617603302
aF80.66790390014648
aF80.7789421081543
aF80.98414087295532
aF81.07981824874878
aF81.17636442184448
aF81.37316656112671
aF81.48170638084412
aF81.62417817115784
aF81.71697068214417
aF81.80659627914429
aF81.9761950969696
aF82.17369937896729
aF82.27630186080933
aF82.38005900382996
aF82.53978610038757
aF82.69236826896667
aF82.85388684272766
aF82.97985649108887
aF83.05936574935913
aF83.20440220832825
aF83.35361099243164
aF83.43321347236633
aF83.52931356430054
aF83.6640636920929
aF83.84135055541992
aF83.98046636581421
aF84.07360744476318
aF84.17564177513123
aF84.32560682296753
aF84.39694952964783
aF84.55096125602722
aF84.71030521392822
aF84.77629399299622
aF84.92808032035828
aF84.99692630767822
aF85.18092751502991
aF85.29444527626038
aF85.37354755401611
aF85.58370590209961
aF85.7152967453003
aF85.80765891075134
aF85.93203854560852
aF86.00949096679688
aF86.14507174491882
aF86.30971264839172
aF86.40915966033936
aF86.53360915184021
aF86.67209577560425
aF86.82770991325378
aF87.02436566352844
aF87.08340001106262
aF87.25768947601318
aF87.44063830375671
aF87.51034736633301
aF87.71971702575684
aF87.80928945541382
aF87.92132949829102
aF88.04863333702087
aF88.23149633407593
aF88.31271743774414
aF88.39253234863281
aF88.54328894615173
aF88.70962190628052
aF88.79521346092224
aF89.0125515460968
aF89.1936707496643
aF89.25033569335938
aF89.41554379463196
aF89.55129790306091
aF89.7036669254303
aF89.802889585495
aF90.02598977088928
aF90.11130809783936
aF90.30348944664001
aF90.40179514884949
aF90.5750105381012
aF90.70167279243469
aF90.8017463684082
aF90.90315318107605
aF91.0015332698822
aF91.12179327011108
aF91.30227899551392
aF91.40561294555664
aF91.4576849937439
aF91.63203692436218
aF91.7919864654541
aF91.8421618938446
aF92.04299020767212
aF92.1216254234314
aF92.2967586517334
aF92.43445539474487
aF92.58953285217285
aF92.7258608341217
aF92.81726837158203
aF92.96510887145996
aF93.0450165271759
aF93.21760630607605
aF93.30334830284119
aF93.40893149375916
aF93.52607870101929
aF93.70167851448059
aF93.8001868724823
aF93.91897344589233
aF94.04737448692322
aF94.20616436004639
aF94.30198192596436
aF94.43376326560974
aF94.5345504283905
aF94.6522650718689
aF94.80161166191101
aF94.89616584777832
aF95.00822710990906
aF95.1240918636322
aF95.20590138435364
aF95.4059522151947
aF95.52715039253235
aF95.63538241386414
aF95.71032810211182
aF95.92379331588745
aF96.00649619102478
aF96.12704348564148
aF96.33951163291931
aF96.42486786842346
aF96.52197504043579
aF96.66672396659851
aF96.75416254997253
aF96.924072265625
aF97.0082733631134
aF97.12000322341919
aF97.19416379928589
aF97.34221410751343
aF97.51818370819092
aF97.63242316246033
aF97.74627828598022
aF97.91081094741821
aF98.05137062072754
aF98.11711120605469
aF98.2442238330841
aF98.43851685523987
aF98.57960534095764
aF98.7213704586029
aF98.82653665542603
aF98.93104982376099
aF99.03081011772156
aF99.16656804084778
aF99.3757598400116
aF99.5052855014801
aF99.62879061698914
aF99.77576756477356
aF99.86340236663818
aF99.9233136177063
aF100.08128809928894
aF100.24617767333984
aF100.37244868278503
aF100.46175265312195
aF100.53952860832214
aF100.66275811195374
aF100.82659530639648
aF100.90943264961243
aF101.04961681365967
aF101.1705572605133
aF101.31632709503174
aF101.43397355079651
aF101.571218252182
aF101.6534276008606
aF101.7698769569397
aF101.93686580657959
aF101.97565150260925
aF102.17250299453735
aF102.2755651473999
aF102.3829095363617
aF102.53512692451477
aF102.62984204292297
aF102.76302576065063
aF102.82727456092834
aF102.90474343299866
aF103.07172775268555
aF103.24982571601868
aF103.380615234375
aF103.47588205337524
aF103.61916160583496
aF103.73405456542969
aF103.86199831962585
aF103.97921895980835
aF104.10621047019958
aF104.17324018478394
aF104.31920075416565
aF104.38031315803528
aF104.56948232650757
aF104.66562533378601
aF104.77423787117004
aF104.87606287002563
aF104.9750874042511
aF105.04325771331787
aF105.1844072341919
aF105.2818009853363
aF105.43987131118774
aF105.5728371143341
aF105.741770029068
aF105.77705359458923
aF105.93638253211975
aF106.05761075019836
aF106.1675066947937
aF106.2678611278534
aF106.37517070770264
aF106.48072791099548
aF106.601313829422
aF106.77666091918945
aF106.89392828941345
aF106.9739043712616
aF107.09805560112
aF107.22720718383789
aF107.38425779342651
aF107.50616693496704
aF107.63916277885437
aF107.70711827278137
aF107.92907547950745
aF108.07108807563782
aF108.1336145401001
aF108.28243708610535
aF108.41433787345886
aF108.46696877479553
aF108.60726475715637
aF108.6665608882904
aF108.78235507011414
aF108.86925554275513
aF109.02118873596191
aF109.07190203666687
aF109.28236746788025
aF109.36534833908081
aF109.46577024459839
aF109.6181652545929
aF109.78612852096558
aF109.82452607154846
aF109.97288823127747
aF110.06644988059998
aF110.21524500846863
aF110.27782273292542
aF110.46849632263184
aF110.58571457862854
aF110.70626401901245
aF110.76586532592773
aF110.86587762832642
aF111.00764417648315
aF111.0656750202179
aF111.20966529846191
aF111.32771158218384
aF111.46464896202087
aF111.53860926628113
aF111.67279505729675
aF111.86926674842834
aF111.94396686553955
aF112.06607747077942
aF112.19178676605225
aF112.32771110534668
aF112.40689992904663
aF112.54961514472961
aF112.73390531539917
aF112.8693323135376
aF112.97087335586548
aF113.13682627677917
aF113.20971059799194
aF113.37411069869995
aF113.54069089889526
aF113.61361527442932
aF113.79263067245483
aF113.94537949562073
aF114.01295113563538
aF114.12642502784729
aF114.31163287162781
aF114.38460683822632
aF114.5111870765686
aF114.68125605583191
aF114.73295092582703
aF114.89421439170837
aF115.0733642578125
aF115.17449927330017
aF115.28780317306519
aF115.41000032424927
aF115.53679776191711
aF115.67170596122742
aF115.82350969314575
aF115.90961289405823
aF116.00994944572449
asg7
(lp15
F-0.08472976833581924
aF-0.0881432592868805
aF-0.08117692172527313
aF-0.0830017626285553
aF-0.07826326042413712
aF-0.10728591680526733
aF-0.091787189245224
aF-0.083306685090065
aF-0.0780540406703949
aF-0.0783478319644928
aF-0.07148835062980652
aF-0.07253434509038925
aF-0.06931973993778229
aF-0.06514544785022736
aF-0.06420078873634338
aF-0.06094086915254593
aF-0.06106910854578018
aF-0.058740001171827316
aF-0.05819498002529144
aF-0.10355638712644577
aF-0.10362765192985535
aF-0.10358079522848129
aF-0.1035807803273201
aF-0.10351996123790741
aF-0.10360954701900482
aF-0.10807032138109207
aF-0.11010611057281494
aF-0.10948317497968674
aF-0.11057859659194946
aF-0.11136384308338165
aF-0.11075885593891144
aF-0.11200374364852905
aF-0.10716322809457779
aF-0.1082487478852272
aF-0.10861776769161224
aF-0.10321754962205887
aF-0.10018991678953171
aF-0.10170672088861465
aF-0.1018994078040123
aF-0.10039228200912476
aF-0.09900747239589691
aF-0.09667365998029709
aF-0.0974481925368309
aF-0.09926502406597137
aF-0.10006721317768097
aF-0.10081350803375244
aF-0.10453811287879944
aF-0.1035475805401802
aF-0.1050199344754219
aF-0.11061929166316986
aF-0.11250564455986023
aF-0.12014041095972061
aF-0.11890225112438202
aF-0.12368050217628479
aF-0.11237020790576935
aF-0.11252352595329285
aF-0.11386142671108246
aF-0.11171690374612808
aF-0.11156905442476273
aF-0.11390577256679535
aF-0.11352749913930893
aF-0.11031254380941391
aF-0.11035353690385818
aF-0.10565975308418274
aF-0.11148875206708908
aF-0.1113075315952301
aF-0.11107652634382248
aF-0.11217934638261795
aF-0.12046056985855103
aF-0.1178145706653595
aF-0.11827314645051956
aF-0.11997552961111069
aF-0.1244334727525711
aF-0.12665902078151703
aF-0.12559765577316284
aF-0.12390090525150299
aF-0.12322590500116348
aF-0.12793512642383575
aF-0.12877915799617767
aF-0.12680500745773315
aF-0.13295714557170868
aF-0.13212357461452484
aF-0.1373876929283142
aF-0.14180639386177063
aF-0.1451912671327591
aF-0.13748294115066528
aF-0.13374148309230804
aF-0.14146968722343445
aF-0.14106811583042145
aF-0.14521628618240356
aF-0.14870664477348328
aF-0.14551791548728943
aF-0.15139999985694885
aF-0.1416759490966797
aF-0.1347183734178543
aF-0.14064526557922363
aF-0.1416342407464981
aF-0.14009630680084229
aF-0.1431654989719391
aF-0.13511037826538086
aF-0.13878504931926727
aF-0.13671457767486572
aF-0.1307811439037323
aF-0.1266729235649109
aF-0.12437936663627625
aF-0.12554942071437836
aF-0.12453112006187439
aF-0.12583330273628235
aF-0.1378982663154602
aF-0.1343376636505127
aF-0.13775146007537842
aF-0.1417471170425415
aF-0.1305427849292755
aF-0.13112619519233704
aF-0.1285792589187622
aF-0.12402661889791489
aF-0.11725205183029175
aF-0.11132034659385681
aF-0.10937227308750153
aF-0.11186195909976959
aF-0.11014039814472198
aF-0.11233184486627579
aF-0.11299668252468109
aF-0.13823701441287994
aF-0.18162596225738525
aF-0.19192011654376984
aF-0.18763843178749084
aF-0.1878182291984558
aF-0.18975776433944702
aF-0.18794919550418854
aF-0.18423238396644592
aF-0.15417228639125824
aF-0.12340006232261658
aF-0.08466282486915588
aF-0.009785773232579231
aF0.08675108850002289
aF0.09868577122688293
aF0.09656403213739395
aF0.10143391788005829
aF0.0981777012348175
aF0.10312251001596451
aF0.1072005033493042
aF0.14919155836105347
aF0.2345712035894394
aF0.2770208716392517
aF0.3509622812271118
aF0.38527005910873413
aF0.3862057030200958
aF0.3697004020214081
aF0.3666309714317322
aF0.3684982359409332
aF0.37630030512809753
aF0.376284122467041
aF0.3725316822528839
aF0.3740678131580353
aF0.3760445713996887
aF0.3912801444530487
aF0.3912676274776459
aF0.3829127848148346
aF0.3820856809616089
aF0.38441216945648193
aF0.3703005611896515
aF0.3774442672729492
aF0.37494590878486633
aF0.41044434905052185
aF0.420698344707489
aF0.39387014508247375
aF0.39842015504837036
aF0.4035415053367615
aF0.4145021140575409
aF0.4202658236026764
aF0.4311589300632477
aF0.44247403740882874
aF0.45031964778900146
aF0.4548541307449341
aF0.4755360782146454
aF0.47965383529663086
aF0.4796828627586365
aF0.47457486391067505
aF0.4788128733634949
aF0.4830073118209839
aF0.48212307691574097
aF0.4818021357059479
aF0.47993147373199463
aF0.48091840744018555
aF0.47737082839012146
aF0.47384992241859436
aF0.4746938943862915
aF0.47414204478263855
aF0.47277340292930603
aF0.4708728790283203
aF0.460528165102005
aF0.4633631706237793
aF0.46593043208122253
aF0.466806560754776
aF0.4622844159603119
aF0.4595974087715149
aF0.5036934614181519
aF0.5431771278381348
aF0.5628823041915894
aF0.608892023563385
aF0.669874370098114
aF0.6903347373008728
aF0.7233919501304626
aF0.7574643492698669
aF0.7861115336418152
aF0.8465391993522644
aF0.8732075691223145
aF0.8969748020172119
aF0.9864304065704346
aF1.0316369533538818
aF1.0773569345474243
aF1.15739107131958
aF1.1999711990356445
aF1.1890573501586914
aF1.1874326467514038
aF1.1896904706954956
aF1.1880015134811401
aF1.1834313869476318
aF1.1897315979003906
aF1.1893701553344727
aF1.1855779886245728
aF1.187782645225525
aF1.1873067617416382
aF1.1859077215194702
aF1.182899832725525
aF1.1863807439804077
aF1.186401605606079
aF1.185787320137024
aF1.2243682146072388
aF1.2498453855514526
aF1.3022457361221313
aF1.336971640586853
aF1.3269684314727783
aF1.3288236856460571
aF1.3290742635726929
aF1.336762547492981
aF1.3338059186935425
aF1.3330016136169434
aF1.3370561599731445
aF1.3383721113204956
aF1.3414859771728516
aF1.3445467948913574
aF1.3448024988174438
aF1.3437016010284424
aF1.3467381000518799
aF1.3467856645584106
aF1.3497494459152222
aF1.3457297086715698
aF1.3497462272644043
aF1.3516745567321777
aF1.3535802364349365
aF1.3547353744506836
aF1.3546487092971802
aF1.3487815856933594
aF1.3511329889297485
aF1.3551559448242188
aF1.3555909395217896
aF1.3571094274520874
aF1.3743653297424316
aF1.3730233907699585
aF1.3745089769363403
aF1.3623006343841553
aF1.368476152420044
aF1.3654874563217163
aF1.3706138134002686
aF1.375460147857666
aF1.3739535808563232
aF1.3739804029464722
aF1.3688308000564575
aF1.3701151609420776
aF1.379136323928833
aF1.3776682615280151
aF1.3719085454940796
aF1.401434063911438
aF1.5141448974609375
aF1.5439262390136719
aF1.7264537811279297
aF1.784474492073059
aF1.7770386934280396
aF1.773842215538025
aF1.7729477882385254
aF1.7559906244277954
aF1.7650727033615112
aF1.7610207796096802
aF1.768849492073059
aF1.7664228677749634
aF1.7696815729141235
aF1.7682194709777832
aF1.7662761211395264
aF1.7677310705184937
aF1.7669609785079956
aF1.7668012380599976
aF1.7654613256454468
aF1.7643238306045532
aF1.7626606225967407
aF1.7640949487686157
aF1.763706088066101
aF1.7686545848846436
aF1.7656488418579102
aF1.7570881843566895
aF1.766812801361084
aF1.7676929235458374
aF1.7739534378051758
aF1.7677550315856934
aF1.7724019289016724
aF1.7713323831558228
aF1.7722121477127075
aF1.7716541290283203
aF1.769639015197754
aF1.7739711999893188
aF1.7717489004135132
aF1.7704840898513794
aF1.7738516330718994
aF1.776363730430603
aF1.7740899324417114
aF1.7768449783325195
aF1.7717946767807007
aF1.7658603191375732
aF1.7678062915802002
aF1.7632488012313843
aF1.7644113302230835
aF1.7623558044433594
aF1.7544292211532593
aF1.749311089515686
aF1.7523043155670166
aF1.7108792066574097
aF1.6598024368286133
aF1.647472858428955
aF1.6058391332626343
aF1.6175556182861328
aF1.6105108261108398
aF1.6092326641082764
aF1.6057472229003906
aF1.6068799495697021
aF1.6179420948028564
aF1.6064153909683228
aF1.603013038635254
aF1.5962586402893066
aF1.611490249633789
aF1.6939622163772583
aF1.7281323671340942
aF1.718385934829712
aF1.7126455307006836
aF1.7141002416610718
aF1.7157796621322632
aF1.7157093286514282
aF1.7172460556030273
aF1.7167423963546753
aF1.7219483852386475
aF1.7185007333755493
aF1.7192243337631226
aF1.7226734161376953
aF1.722913146018982
aF1.722611904144287
aF1.7270543575286865
aF1.7276188135147095
aF1.731842279434204
aF1.7285133600234985
aF1.7283471822738647
aF1.7282800674438477
aF1.7276395559310913
aF1.7295349836349487
aF1.7277742624282837
aF1.727527379989624
aF1.724441409111023
aF1.7254538536071777
aF1.725315809249878
aF1.7235534191131592
aF1.7195264101028442
aF1.7203471660614014
aF1.714281678199768
aF1.7084115743637085
aF1.7139315605163574
aF1.7115297317504883
aF1.7162054777145386
aF1.7134777307510376
aF1.716469407081604
aF1.7194945812225342
aF1.7165653705596924
aF1.718826413154602
aF1.7207653522491455
aF1.722749948501587
aF1.7332671880722046
aF1.7308608293533325
aF1.725764513015747
aF1.7182749509811401
aF1.7097198963165283
aF1.7039002180099487
aF1.7079085111618042
aF1.7085957527160645
aF1.7059803009033203
aF1.7090961933135986
aF1.7104852199554443
aF1.7065681219100952
aF1.7084119319915771
aF1.706714391708374
aF1.7068705558776855
aF1.7054224014282227
aF1.7047373056411743
aF1.7141244411468506
aF1.6788442134857178
aF1.6883121728897095
aF1.6899060010910034
aF1.688849687576294
aF1.6887037754058838
aF1.6869324445724487
aF1.6818819046020508
aF1.6819261312484741
aF1.679080605506897
aF1.678978681564331
aF1.6776167154312134
aF1.6764277219772339
aF1.6773699522018433
aF1.679457426071167
aF1.6770262718200684
aF1.66972017288208
aF1.6747957468032837
aF1.6732739210128784
aF1.6725958585739136
aF1.674360752105713
aF1.6739190816879272
aF1.6730788946151733
aF1.6734232902526855
aF1.6734178066253662
aF1.6754270792007446
aF1.6775027513504028
aF1.6709015369415283
aF1.6725218296051025
aF1.6693594455718994
aF1.673572301864624
aF1.669991374015808
aF1.6675353050231934
aF1.672545075416565
aF1.6720813512802124
aF1.672484040260315
aF1.667115330696106
aF1.6658244132995605
aF1.6614041328430176
aF1.663230299949646
aF1.6666975021362305
aF1.6640311479568481
aF1.666642665863037
aF1.6753618717193604
aF1.6688600778579712
aF1.6660196781158447
aF1.6667239665985107
aF1.6651129722595215
aF1.6670966148376465
aF1.662218451499939
aF1.662048101425171
aF1.6626373529434204
aF1.6636112928390503
aF1.6606841087341309
aF1.658333659172058
aF1.6593154668807983
aF1.6502426862716675
aF1.6462184190750122
aF1.6416980028152466
aF1.6464775800704956
aF1.6459418535232544
aF1.6461920738220215
aF1.6473095417022705
aF1.6493053436279297
aF1.6450247764587402
aF1.650802493095398
aF1.641893744468689
aF1.6374434232711792
aF1.639295220375061
aF1.6408905982971191
aF1.6396384239196777
aF1.6409364938735962
aF1.6390740871429443
aF1.6368776559829712
aF1.6383692026138306
aF1.6363638639450073
aF1.6358782052993774
aF1.6356079578399658
aF1.6258083581924438
aF1.6201170682907104
aF1.6198331117630005
aF1.618770956993103
aF1.6197500228881836
aF1.6166355609893799
aF1.6185930967330933
aF1.624803066253662
aF1.6254026889801025
aF1.628746509552002
aF1.6323121786117554
aF1.6306134462356567
aF1.633231520652771
aF1.6337674856185913
aF1.6279311180114746
aF1.62256920337677
aF1.6189453601837158
aF1.6140763759613037
aF1.617030382156372
aF1.6157485246658325
aF1.6175916194915771
aF1.61662757396698
aF1.6146384477615356
aF1.612066626548767
aF1.611498475074768
aF1.6100742816925049
aF1.608465313911438
aF1.62991201877594
aF1.6209547519683838
aF1.6324498653411865
aF1.6267387866973877
aF1.6306101083755493
aF1.631626009941101
aF1.6405105590820312
aF1.6850171089172363
aF1.6800483465194702
aF1.687927007675171
aF1.733852505683899
aF1.7823697328567505
aF1.8096426725387573
aF1.9729238748550415
aF2.024780035018921
aF2.1825597286224365
aF2.256343364715576
aF2.4364283084869385
aF2.599400758743286
aF2.6384520530700684
aF2.7111260890960693
aF2.7300240993499756
aF2.7164700031280518
aF2.7656965255737305
aF2.7914981842041016
aF2.8392486572265625
aF2.9041261672973633
aF2.9441986083984375
aF3.018414258956909
aF3.069329261779785
aF-3.137432813644409
aF-3.139106035232544
aF-3.1398110389709473
aF-3.131653070449829
aF-3.0880396366119385
aF-3.0896646976470947
aF-3.1016616821289062
aF-3.1026599407196045
aF-3.077375888824463
aF-3.062523603439331
aF-3.0731515884399414
aF-3.075637102127075
aF-3.077890157699585
aF-3.0812299251556396
aF-3.082399368286133
aF-3.085336446762085
aF-3.087127685546875
aF-3.084505319595337
aF-3.0783236026763916
aF-3.0376858711242676
aF-3.0236432552337646
aF-3.006898880004883
aF-2.86883282661438
aF-2.8604133129119873
aF-2.8433988094329834
aF-2.850764751434326
aF-2.8542919158935547
aF-2.851273536682129
aF-2.8465566635131836
aF-2.840972423553467
aF-2.836667776107788
aF-2.8401119709014893
aF-2.8347535133361816
aF-2.8467423915863037
aF-2.848687171936035
aF-2.8537001609802246
aF-2.851830244064331
aF-2.8553807735443115
aF-2.8456554412841797
aF-2.8525755405426025
aF-2.8535008430480957
aF-2.849238395690918
aF-2.8555150032043457
aF-2.858842134475708
aF-2.858574628829956
aF-2.856628656387329
aF-2.858524799346924
aF-2.8545875549316406
aF-2.8620288372039795
aF-2.861985206604004
aF-2.861405849456787
aF-2.853581190109253
aF-2.848536491394043
aF-2.8531463146209717
aF-2.8590197563171387
aF-2.8750152587890625
aF-2.851999282836914
aF-2.850485324859619
aF-2.8634607791900635
aF-2.8629512786865234
aF-2.8689098358154297
aF-2.872192859649658
aF-2.870138168334961
aF-2.870112895965576
aF-2.865385055541992
aF-2.8608782291412354
aF-2.859182119369507
aF-2.856217622756958
aF-2.850119113922119
aF-2.796217441558838
aF-2.815037965774536
aF-2.8133504390716553
aF-2.808507204055786
aF-2.778512954711914
aF-2.763484477996826
aF-2.764115810394287
aF-2.7650082111358643
aF-2.7488086223602295
aF-2.723789691925049
aF-2.687688112258911
aF-2.687805414199829
aF-2.68941593170166
aF-2.6816132068634033
aF-2.6870381832122803
aF-2.6762495040893555
aF-2.636471748352051
aF-2.6087005138397217
aF-2.549198627471924
aF-2.518523693084717
aF-2.494584083557129
aF-2.3618626594543457
aF-2.2841382026672363
aF-2.2228517532348633
aF-2.142146587371826
aF-2.134615421295166
aF-2.009803533554077
aF-1.8939704895019531
aF-1.8216897249221802
aF-1.7652978897094727
aF-1.7152286767959595
aF-1.5647839307785034
aF-1.491477131843567
aF-1.4712579250335693
aF-1.46342134475708
aF-1.4727035760879517
aF-1.4659814834594727
aF-1.4603420495986938
aF-1.4629219770431519
aF-1.4667261838912964
aF-1.474417805671692
aF-1.5174146890640259
aF-1.5082297325134277
aF-1.564926028251648
aF-1.5653151273727417
aF-1.5624665021896362
aF-1.5709706544876099
aF-1.5830280780792236
aF-1.5831032991409302
aF-1.5961222648620605
aF-1.648925542831421
aF-1.6541672945022583
aF-1.6551374197006226
aF-1.659205436706543
aF-1.6526448726654053
aF-1.6566506624221802
aF-1.6604055166244507
aF-1.655105471611023
aF-1.6577298641204834
aF-1.6619200706481934
aF-1.6652448177337646
aF-1.6661865711212158
aF-1.6619406938552856
aF-1.6660562753677368
aF-1.6677415370941162
aF-1.6716667413711548
aF-1.6606159210205078
aF-1.6699788570404053
aF-1.6670655012130737
aF-1.6661092042922974
aF-1.6725257635116577
aF-1.679115891456604
aF-1.6725198030471802
aF-1.676986575126648
aF-1.6759408712387085
aF-1.6716256141662598
aF-1.6774085760116577
aF-1.6801334619522095
aF-1.688111662864685
aF-1.6824074983596802
aF-1.6807684898376465
aF-1.684188961982727
aF-1.6824657917022705
aF-1.6793129444122314
aF-1.6785790920257568
aF-1.594840168952942
aF-1.5675121545791626
aF-1.5746432542800903
aF-1.5685988664627075
aF-1.5787996053695679
aF-1.5889418125152588
aF-1.58035409450531
aF-1.583592176437378
aF-1.5840562582015991
aF-1.57949697971344
aF-1.5822420120239258
aF-1.5813100337982178
aF-1.5821340084075928
aF-1.5821311473846436
aF-1.5857288837432861
aF-1.5810842514038086
aF-1.5840507745742798
aF-1.5873240232467651
aF-1.5855339765548706
aF-1.5865925550460815
aF-1.5855082273483276
aF-1.5906882286071777
aF-1.588524341583252
aF-1.5887982845306396
aF-1.5946317911148071
aF-1.626313328742981
aF-1.6233686208724976
aF-1.6092873811721802
aF-1.6226816177368164
aF-1.6311795711517334
aF-1.6237539052963257
aF-1.6223033666610718
aF-1.6180529594421387
aF-1.6422269344329834
aF-1.6820685863494873
aF-1.6653286218643188
aF-1.6710841655731201
aF-1.6684844493865967
aF-1.6703132390975952
aF-1.668692708015442
aF-1.670750379562378
aF-1.6642389297485352
aF-1.6682863235473633
aF-1.667615532875061
aF-1.6651628017425537
aF-1.666096806526184
aF-1.6668545007705688
aF-1.6663908958435059
aF-1.667293906211853
aF-1.67066490650177
aF-1.6707662343978882
aF-1.6658858060836792
aF-1.6689335107803345
aF-1.6718553304672241
aF-1.6744775772094727
aF-1.6721632480621338
aF-1.6774711608886719
aF-1.6813775300979614
aF-1.6793264150619507
aF-1.6831141710281372
aF-1.6820993423461914
aF-1.6789594888687134
aF-1.6791033744812012
aF-1.6818286180496216
aF-1.6846290826797485
aF-1.6861968040466309
aF-1.685080885887146
aF-1.6827776432037354
aF-1.6822149753570557
aF-1.682129144668579
aF-1.6809519529342651
aF-1.6803090572357178
aF-1.682040810585022
aF-1.6803743839263916
aF-1.679870843887329
aF-1.6703612804412842
aF-1.6392922401428223
aF-1.6368380784988403
aF-1.6442677974700928
aF-1.6535102128982544
aF-1.6505029201507568
aF-1.6524324417114258
aF-1.6501479148864746
aF-1.651667833328247
aF-1.6546536684036255
aF-1.652988314628601
aF-1.6462934017181396
aF-1.6300772428512573
aF-1.615477204322815
aF-1.607987403869629
aF-1.605371117591858
aF-1.6029356718063354
aF-1.5983223915100098
aF-1.592136263847351
aF-1.5910539627075195
aF-1.590192437171936
aF-1.5937021970748901
aF-1.5919333696365356
aF-1.5895135402679443
aF-1.5852972269058228
aF-1.5842185020446777
aF-1.5878578424453735
aF-1.5911763906478882
aF-1.5846041440963745
aF-1.583794116973877
aF-1.6102769374847412
aF-1.636671543121338
aF-1.6036019325256348
aF-1.578303337097168
aF-1.5515122413635254
aF-1.5440709590911865
aF-1.533728003501892
aF-1.4895336627960205
aF-1.4541524648666382
aF-1.4120457172393799
aF-1.335091471672058
aF-1.3087104558944702
aF-1.234287142753601
aF-1.2127591371536255
aF-1.1306456327438354
aF-1.0531885623931885
aF-1.004706621170044
aF-0.9508445858955383
aF-0.905566394329071
aF-0.8758032917976379
aF-0.7973583936691284
aF-0.7205890417098999
aF-0.7047902941703796
aF-0.7127360105514526
aF-0.7132068872451782
aF-0.7149472832679749
aF-0.7167554497718811
aF-0.7148957848548889
aF-0.7122305035591125
aF-0.7102230787277222
aF-0.7116748094558716
aF-0.7100762724876404
aF-0.7105251550674438
aF-0.6970363855361938
aF-0.6878600716590881
aF-0.6853258013725281
aF-0.6756145358085632
aF-0.6524397134780884
aF-0.5733897089958191
aF-0.49041491746902466
aF-0.47152507305145264
aF-0.4785428047180176
aF-0.442777156829834
aF-0.431093692779541
aF-0.43174996972084045
aF-0.4292166531085968
aF-0.42875078320503235
aF-0.43023431301116943
aF-0.432115763425827
aF-0.42979735136032104
aF-0.43415573239326477
aF-0.4372446835041046
aF-0.4409037232398987
aF-0.44151774048805237
aF-0.4439745247364044
aF-0.44312915205955505
aF-0.4305884540081024
aF-0.4310770332813263
aF-0.41717350482940674
aF-0.40550708770751953
aF-0.3837781548500061
aF-0.36298075318336487
aF-0.34559834003448486
aF-0.3259696960449219
aF-0.3193422555923462
aF-0.3218030631542206
aF-0.3168257772922516
aF-0.3145349323749542
aF-0.31823572516441345
aF-0.30906006693840027
aF-0.30161476135253906
aF-0.2935430109500885
aF-0.2758619785308838
aF-0.2585603594779968
aF-0.25395703315734863
aF-0.23817779123783112
aF-0.1314917802810669
aF-0.11386118084192276
aF-0.1043519526720047
aF-0.10291208326816559
aF-0.1266147792339325
aF-0.1418534368276596
aF-0.163715660572052
aF-0.15500275790691376
aF-0.15962624549865723
aF-0.1620592325925827
aF-0.15651588141918182
aF-0.1607648730278015
aF-0.15646719932556152
aF-0.15582062304019928
aF-0.1563231498003006
aF-0.15762342512607574
aF-0.16100840270519257
aF-0.15963436663150787
aF-0.1577495038509369
aF-0.16230270266532898
aF-0.16225172579288483
aF-0.16037489473819733
aF-0.15972962975502014
aF-0.15976159274578094
aF-0.159835547208786
aF-0.16255377233028412
aF-0.16520795226097107
aF-0.16129329800605774
aF-0.16599629819393158
aF-0.16609090566635132
aF-0.1677052527666092
aF-0.16941875219345093
aF-0.16949602961540222
aF-0.16957426071166992
asg9
(lp16
F11.269121170043945
aF11.270709037780762
aF11.26823616027832
aF11.271336555480957
aF11.268492698669434
aF11.271170616149902
aF11.267721176147461
aF11.268646240234375
aF11.271936416625977
aF11.26939582824707
aF11.269054412841797
aF11.268091201782227
aF11.265802383422852
aF11.266460418701172
aF11.266935348510742
aF11.26662826538086
aF11.266641616821289
aF11.265347480773926
aF11.265202522277832
aF11.263078689575195
aF11.263606071472168
aF11.263254165649414
aF11.263254165649414
aF11.265294075012207
aF11.26981258392334
aF11.324681282043457
aF11.369028091430664
aF11.413849830627441
aF11.455044746398926
aF11.489340782165527
aF11.554161071777344
aF11.573862075805664
aF11.670251846313477
aF11.717286109924316
aF11.739620208740234
aF11.826300621032715
aF11.89787769317627
aF11.988601684570312
aF12.03116512298584
aF12.079386711120605
aF12.171607971191406
aF12.191459655761719
aF12.211563110351562
aF12.294166564941406
aF12.336806297302246
aF12.451900482177734
aF12.516813278198242
aF12.56078815460205
aF12.631621360778809
aF12.699810028076172
aF12.7442626953125
aF12.788883209228516
aF12.80994987487793
aF12.879057884216309
aF12.943136215209961
aF12.966085433959961
aF13.010387420654297
aF13.099454879760742
aF13.144145011901855
aF13.235300064086914
aF13.258575439453125
aF13.348341941833496
aF13.369499206542969
aF13.440773963928223
aF13.518718719482422
aF13.54751968383789
aF13.643747329711914
aF13.673506736755371
aF13.804433822631836
aF13.892693519592285
aF13.921239852905273
aF14.005634307861328
aF14.064014434814453
aF14.148183822631836
aF14.179609298706055
aF14.264124870300293
aF14.351855278015137
aF14.380468368530273
aF14.497709274291992
aF14.582634925842285
aF14.677165031433105
aF14.730738639831543
aF14.790633201599121
aF14.848143577575684
aF14.86623764038086
aF14.88557243347168
aF14.88016414642334
aF14.876482963562012
aF14.881536483764648
aF14.884025573730469
aF14.89100170135498
aF14.88995361328125
aF14.908059120178223
aF14.938058853149414
aF14.967702865600586
aF14.999103546142578
aF15.025567054748535
aF15.056882858276367
aF15.113245010375977
aF15.157890319824219
aF15.193800926208496
aF15.225879669189453
aF15.255087852478027
aF15.283353805541992
aF15.333426475524902
aF15.354008674621582
aF15.437140464782715
aF15.471596717834473
aF15.542531967163086
aF15.604743003845215
aF15.656506538391113
aF15.709086418151855
aF15.743522644042969
aF15.794535636901855
aF15.872732162475586
aF15.919017791748047
aF15.966815948486328
aF16.04546546936035
aF16.07317352294922
aF16.175630569458008
aF16.205392837524414
aF16.2639102935791
aF16.290058135986328
aF16.42156410217285
aF16.479265213012695
aF16.561979293823242
aF16.61640739440918
aF16.69545555114746
aF16.76770782470703
aF16.79514503479004
aF16.85246467590332
aF16.965105056762695
aF17.022916793823242
aF17.076242446899414
aF17.12396240234375
aF17.207387924194336
aF17.286643981933594
aF17.314916610717773
aF17.394277572631836
aF17.44593048095703
aF17.524829864501953
aF17.585901260375977
aF17.63958740234375
aF17.7214412689209
aF17.74330711364746
aF17.7886905670166
aF17.879989624023438
aF17.902700424194336
aF17.971271514892578
aF18.01634407043457
aF18.0858211517334
aF18.13215446472168
aF18.200843811035156
aF18.29140281677246
aF18.33641242980957
aF18.40099334716797
aF18.444704055786133
aF18.468297958374023
aF18.512351989746094
aF18.62405014038086
aF18.667064666748047
aF18.735130310058594
aF18.756189346313477
aF18.81972312927246
aF18.903106689453125
aF18.9644775390625
aF19.005220413208008
aF19.06511116027832
aF19.122339248657227
aF19.157155990600586
aF19.215885162353516
aF19.25104522705078
aF19.29306411743164
aF19.336915969848633
aF19.357585906982422
aF19.459932327270508
aF19.49724769592285
aF19.557796478271484
aF19.627445220947266
aF19.681671142578125
aF19.768898010253906
aF19.822240829467773
aF19.849227905273438
aF19.92607307434082
aF19.993633270263672
aF20.100725173950195
aF20.13043212890625
aF20.253427505493164
aF20.3148136138916
aF20.406082153320312
aF20.434350967407227
aF20.56718635559082
aF20.66316032409668
aF20.72481918334961
aF20.790754318237305
aF20.884660720825195
aF20.944433212280273
aF21.02366065979004
aF21.081743240356445
aF21.11159896850586
aF21.229509353637695
aF21.346559524536133
aF21.370113372802734
aF21.455480575561523
aF21.506633758544922
aF21.559675216674805
aF21.673908233642578
aF21.72589111328125
aF21.778179168701172
aF21.88134765625
aF21.931676864624023
aF21.975435256958008
aF22.058425903320312
aF22.12544059753418
aF22.15519142150879
aF22.16488265991211
aF22.169374465942383
aF22.193424224853516
aF22.223318099975586
aF22.22683334350586
aF22.233966827392578
aF22.262256622314453
aF22.281023025512695
aF22.293872833251953
aF22.330930709838867
aF22.367488861083984
aF22.382537841796875
aF22.40477180480957
aF22.42131233215332
aF22.429122924804688
aF22.434877395629883
aF22.461090087890625
aF22.49024772644043
aF22.50931739807129
aF22.530349731445312
aF22.537315368652344
aF22.558895111083984
aF22.56946563720703
aF22.59560203552246
aF22.615503311157227
aF22.629581451416016
aF22.64741325378418
aF22.66387939453125
aF22.673385620117188
aF22.683265686035156
aF22.70612144470215
aF22.722408294677734
aF22.737565994262695
aF22.747764587402344
aF22.767635345458984
aF22.77935791015625
aF22.794260025024414
aF22.80921745300293
aF22.813385009765625
aF22.826175689697266
aF22.843748092651367
aF22.85634994506836
aF22.861452102661133
aF22.86944580078125
aF22.87734031677246
aF22.88583755493164
aF22.893299102783203
aF22.912376403808594
aF22.92498779296875
aF22.93404197692871
aF22.94568634033203
aF22.948545455932617
aF22.96263885498047
aF22.9764404296875
aF22.99664306640625
aF23.00142478942871
aF23.017087936401367
aF23.026443481445312
aF23.03761100769043
aF23.05283546447754
aF23.054828643798828
aF23.06109046936035
aF23.05137062072754
aF23.048738479614258
aF23.058067321777344
aF23.05181312561035
aF23.050142288208008
aF23.03898048400879
aF23.02538299560547
aF23.021419525146484
aF23.00125503540039
aF22.989120483398438
aF22.980026245117188
aF22.967607498168945
aF22.95942497253418
aF22.946372985839844
aF22.935321807861328
aF22.917261123657227
aF22.912246704101562
aF22.898151397705078
aF22.89341163635254
aF22.87059783935547
aF22.85059356689453
aF22.825927734375
aF22.81649398803711
aF22.801572799682617
aF22.791336059570312
aF22.778919219970703
aF22.761043548583984
aF22.74860954284668
aF22.73358917236328
aF22.721115112304688
aF22.706684112548828
aF22.686376571655273
aF22.66551971435547
aF22.650394439697266
aF22.623985290527344
aF22.61577796936035
aF22.59062385559082
aF22.577651977539062
aF22.556791305541992
aF22.538053512573242
aF22.527605056762695
aF22.510738372802734
aF22.50522804260254
aF22.49847412109375
aF22.490598678588867
aF22.492090225219727
aF22.499141693115234
aF22.50615119934082
aF22.51055145263672
aF22.517900466918945
aF22.51470947265625
aF22.513254165649414
aF22.518030166625977
aF22.510215759277344
aF22.515981674194336
aF22.51826286315918
aF22.523834228515625
aF22.52853775024414
aF22.524076461791992
aF22.531347274780273
aF22.535350799560547
aF22.539030075073242
aF22.545555114746094
aF22.541173934936523
aF22.548925399780273
aF22.55179786682129
aF22.55332374572754
aF22.549970626831055
aF22.546375274658203
aF22.546236038208008
aF22.54170036315918
aF22.539249420166016
aF22.534561157226562
aF22.532089233398438
aF22.52368927001953
aF22.51603126525879
aF22.51405143737793
aF22.50444984436035
aF22.497358322143555
aF22.487245559692383
aF22.475006103515625
aF22.470237731933594
aF22.463151931762695
aF22.45867347717285
aF22.456106185913086
aF22.451780319213867
aF22.4511775970459
aF22.44485092163086
aF22.440967559814453
aF22.436540603637695
aF22.432462692260742
aF22.428524017333984
aF22.424028396606445
aF22.419837951660156
aF22.41541862487793
aF22.403127670288086
aF22.399877548217773
aF22.389719009399414
aF22.372486114501953
aF22.367361068725586
aF22.352893829345703
aF22.344192504882812
aF22.33012580871582
aF22.321632385253906
aF22.304275512695312
aF22.294065475463867
aF22.26041603088379
aF22.24150848388672
aF22.229801177978516
aF22.219345092773438
aF22.212377548217773
aF22.20660972595215
aF22.204391479492188
aF22.198993682861328
aF22.192928314208984
aF22.187931060791016
aF22.18608283996582
aF22.183895111083984
aF22.184633255004883
aF22.193452835083008
aF22.204917907714844
aF22.209592819213867
aF22.20705795288086
aF22.19556999206543
aF22.189205169677734
aF22.183156967163086
aF22.17547035217285
aF22.1625919342041
aF22.15340805053711
aF22.147197723388672
aF22.1378231048584
aF22.13125228881836
aF22.12493896484375
aF22.119993209838867
aF22.11378288269043
aF22.104373931884766
aF22.098346710205078
aF22.091373443603516
aF22.08500099182129
aF22.077489852905273
aF22.072771072387695
aF22.066661834716797
aF22.055686950683594
aF22.051286697387695
aF22.040611267089844
aF22.03542709350586
aF22.0295467376709
aF22.020875930786133
aF22.01031494140625
aF21.999574661254883
aF21.995487213134766
aF21.98509979248047
aF21.979339599609375
aF21.966516494750977
aF21.962560653686523
aF21.95664405822754
aF21.949111938476562
aF21.947181701660156
aF21.939733505249023
aF21.938430786132812
aF21.93089485168457
aF21.930633544921875
aF21.922542572021484
aF21.915678024291992
aF21.91370391845703
aF21.90684700012207
aF21.89583969116211
aF21.88651466369629
aF21.884235382080078
aF21.87757682800293
aF21.869457244873047
aF21.864755630493164
aF21.85557746887207
aF21.848783493041992
aF21.84628677368164
aF21.8399715423584
aF21.8334903717041
aF21.831275939941406
aF21.82672691345215
aF21.823148727416992
aF21.82240104675293
aF21.8192195892334
aF21.812232971191406
aF21.798110961914062
aF21.79490852355957
aF21.787437438964844
aF21.778148651123047
aF21.774486541748047
aF21.77031898498535
aF21.763723373413086
aF21.76140785217285
aF21.752849578857422
aF21.744462966918945
aF21.74219512939453
aF21.73231315612793
aF21.727933883666992
aF21.72512435913086
aF21.7182559967041
aF21.711423873901367
aF21.703344345092773
aF21.689228057861328
aF21.680295944213867
aF21.66428565979004
aF21.660091400146484
aF21.64862632751465
aF21.6278076171875
aF21.599624633789062
aF21.558015823364258
aF21.52560806274414
aF21.510517120361328
aF21.48467254638672
aF21.474388122558594
aF21.45180320739746
aF21.439834594726562
aF21.426740646362305
aF21.413103103637695
aF21.409629821777344
aF21.407169342041016
aF21.398393630981445
aF21.390365600585938
aF21.382741928100586
aF21.379465103149414
aF21.371116638183594
aF21.36693572998047
aF21.3612117767334
aF21.356645584106445
aF21.35225486755371
aF21.349374771118164
aF21.33576774597168
aF21.333782196044922
aF21.321674346923828
aF21.31077766418457
aF21.29741859436035
aF21.287511825561523
aF21.27851676940918
aF21.270004272460938
aF21.264562606811523
aF21.252378463745117
aF21.236492156982422
aF21.223474502563477
aF21.221893310546875
aF21.212141036987305
aF21.203205108642578
aF21.162385940551758
aF21.152450561523438
aF21.099987030029297
aF20.993268966674805
aF20.96752166748047
aF20.884130477905273
aF20.758275985717773
aF20.724273681640625
aF20.634550094604492
aF20.573261260986328
aF20.476953506469727
aF20.337923049926758
aF20.263668060302734
aF20.16217041015625
aF20.093591690063477
aF19.959369659423828
aF19.898143768310547
aF19.833662033081055
aF19.705432891845703
aF19.576879501342773
aF19.546274185180664
aF19.464139938354492
aF19.410024642944336
aF19.320642471313477
aF19.253463745117188
aF19.196044921875
aF19.089242935180664
aF19.012516021728516
aF18.925777435302734
aF18.841894149780273
aF18.779626846313477
aF18.71577262878418
aF18.648706436157227
aF18.51764488220215
aF18.453853607177734
aF18.312896728515625
aF18.257661819458008
aF18.139768600463867
aF18.07875633239746
aF17.975360870361328
aF17.922563552856445
aF17.854597091674805
aF17.76026153564453
aF17.692829132080078
aF17.609867095947266
aF17.54678726196289
aF17.46202850341797
aF17.328781127929688
aF17.225210189819336
aF17.184772491455078
aF17.11427116394043
aF16.975997924804688
aF16.861228942871094
aF16.7925968170166
aF16.682559967041016
aF16.643390655517578
aF16.5684757232666
aF16.41253662109375
aF16.272682189941406
aF16.203571319580078
aF16.05959701538086
aF15.956159591674805
aF15.886444091796875
aF15.777345657348633
aF15.641321182250977
aF15.611695289611816
aF15.49899673461914
aF15.422057151794434
aF15.272178649902344
aF15.197458267211914
aF15.0859956741333
aF14.989251136779785
aF14.917999267578125
aF14.832005500793457
aF14.678844451904297
aF14.581002235412598
aF14.549839973449707
aF14.388614654541016
aF14.327282905578613
aF14.22512435913086
aF14.11719799041748
aF14.054191589355469
aF13.971084594726562
aF13.905346870422363
aF13.885433197021484
aF13.755220413208008
aF13.668246269226074
aF13.584415435791016
aF13.525040626525879
aF13.41036605834961
aF13.381016731262207
aF13.236091613769531
aF13.140446662902832
aF13.070573806762695
aF12.966609954833984
aF12.856127738952637
aF12.821385383605957
aF12.723562240600586
aF12.62700366973877
aF12.562722206115723
aF12.496024131774902
aF12.394624710083008
aF12.267725944519043
aF12.243180274963379
aF12.178788185119629
aF12.076958656311035
aF12.035319328308105
aF11.961477279663086
aF11.930493354797363
aF11.912583351135254
aF11.85192584991455
aF11.799278259277344
aF11.785321235656738
aF11.74628734588623
aF11.73023796081543
aF11.731989860534668
aF11.725358009338379
aF11.721684455871582
aF11.723648071289062
aF11.733640670776367
aF11.742363929748535
aF11.743441581726074
aF11.747227668762207
aF11.75905704498291
aF11.763965606689453
aF11.783299446105957
aF11.794343948364258
aF11.77950382232666
aF11.793314933776855
aF11.791218757629395
aF11.792701721191406
aF11.788697242736816
aF11.788902282714844
aF11.784075736999512
aF11.778990745544434
aF11.776541709899902
aF11.769580841064453
aF11.766058921813965
aF11.751930236816406
aF11.746404647827148
aF11.74068832397461
aF11.73534107208252
aF11.730727195739746
aF11.716538429260254
aF11.708497047424316
aF11.704071044921875
aF11.69740104675293
aF11.688374519348145
aF11.683049201965332
aF11.665377616882324
aF11.659759521484375
aF11.646940231323242
aF11.631340026855469
aF11.625975608825684
aF11.607243537902832
aF11.596203804016113
aF11.587596893310547
aF11.57927131652832
aF11.570634841918945
aF11.56494140625
aF11.55454158782959
aF11.54569149017334
aF11.52006721496582
aF11.515445709228516
aF11.497183799743652
aF11.480329513549805
aF11.475329399108887
aF11.46146011352539
aF11.442489624023438
aF11.438559532165527
aF11.43613338470459
aF11.427698135375977
aF11.429848670959473
aF11.420129776000977
aF11.416152000427246
aF11.414676666259766
aF11.414299011230469
aF11.41442584991455
aF11.416840553283691
aF11.414387702941895
aF11.415148735046387
aF11.411304473876953
aF11.410222053527832
aF11.410828590393066
aF11.414307594299316
aF11.415803909301758
aF11.414101600646973
aF11.412809371948242
aF11.411710739135742
aF11.411992073059082
aF11.409271240234375
aF11.405376434326172
aF11.406013488769531
aF11.402454376220703
aF11.397404670715332
aF11.396589279174805
aF11.390641212463379
aF11.387895584106445
aF11.378280639648438
aF11.376681327819824
aF11.370733261108398
aF11.36453914642334
aF11.357163429260254
aF11.34632682800293
aF11.334953308105469
aF11.325540542602539
aF11.314596176147461
aF11.304678916931152
aF11.295572280883789
aF11.2844820022583
aF11.27844524383545
aF11.270099639892578
aF11.261751174926758
aF11.254936218261719
aF11.239839553833008
aF11.228303909301758
aF11.219701766967773
aF11.213462829589844
aF11.19848918914795
aF11.1935453414917
aF11.183701515197754
aF11.164037704467773
aF11.159714698791504
aF11.149574279785156
aF11.13939094543457
aF11.13097858428955
aF11.109225273132324
aF11.10483169555664
aF11.089007377624512
aF11.086654663085938
aF11.075278282165527
aF11.058218002319336
aF11.045819282531738
aF11.036232948303223
aF11.01860237121582
aF11.010485649108887
aF11.00547981262207
aF10.995989799499512
aF10.977286338806152
aF10.9628324508667
aF10.948145866394043
aF10.939374923706055
aF10.933334350585938
aF10.928247451782227
aF10.931853294372559
aF10.964472770690918
aF10.982291221618652
aF10.984427452087402
aF10.98324966430664
aF10.989886283874512
aF10.983736991882324
aF10.973310470581055
aF10.958595275878906
aF10.947484016418457
aF10.94492244720459
aF10.9480562210083
aF10.970502853393555
aF10.991415977478027
aF11.001764297485352
aF11.008479118347168
aF11.006958961486816
aF11.028423309326172
aF11.03128433227539
aF11.028538703918457
aF11.028366088867188
aF11.02387523651123
aF11.022160530090332
aF11.02226448059082
aF11.02418041229248
aF11.021985054016113
aF11.018381118774414
aF11.015518188476562
aF11.015913009643555
aF11.018963813781738
aF11.022449493408203
aF11.025747299194336
aF11.024847984313965
aF11.026307106018066
aF11.03461742401123
aF11.048542976379395
aF11.0537691116333
aF11.065333366394043
aF11.067045211791992
aF11.08910083770752
aF11.113259315490723
aF11.122013092041016
aF11.16595458984375
aF11.17726993560791
aF11.222633361816406
aF11.281033515930176
aF11.30800724029541
aF11.326639175415039
aF11.338655471801758
aF11.345577239990234
aF11.368216514587402
aF11.397154808044434
aF11.413079261779785
aF11.440993309020996
aF11.462571144104004
aF11.468605995178223
aF11.488224983215332
aF11.502290725708008
aF11.52380084991455
aF11.542977333068848
aF11.547738075256348
aF11.560134887695312
aF11.570159912109375
aF11.592358589172363
aF11.608854293823242
aF11.614415168762207
aF11.631536483764648
aF11.64421272277832
aF11.666202545166016
aF11.688520431518555
aF11.706871032714844
aF11.721654891967773
aF11.750208854675293
aF11.753023147583008
aF11.75217056274414
aF11.74949836730957
aF11.749631881713867
aF11.749597549438477
aF11.749492645263672
aF11.749384880065918
aF11.749144554138184
aF11.748827934265137
aF11.748648643493652
aF11.748680114746094
aF11.74854564666748
aF11.748541831970215
aF11.748720169067383
aF11.748672485351562
aF11.748626708984375
aF11.74836254119873
aF11.748337745666504
aF11.7487211227417
aF11.748567581176758
aF11.74835205078125
aF11.748247146606445
aF11.748221397399902
aF11.749642372131348
aF11.750693321228027
aF11.75295352935791
aF11.75570297241211
aF11.757447242736816
aF11.758366584777832
aF11.759376525878906
aF11.76016616821289
aF11.760237693786621
aF11.760530471801758
aF11.760979652404785
aF11.76086711883545
aF11.761109352111816
aF11.761147499084473
aF11.761470794677734
aF11.761481285095215
aF11.761401176452637
aF11.761211395263672
aF11.761358261108398
aF11.761479377746582
aF11.761292457580566
aF11.761436462402344
aF11.761345863342285
aF11.761335372924805
aF11.76136302947998
aF11.761395454406738
aF11.761561393737793
aF11.761489868164062
aF11.761415481567383
aF11.761592864990234
aF11.761590003967285
aF11.761515617370605
aF11.761492729187012
aF11.76148509979248
aF11.761486053466797
aF11.761581420898438
aF11.76168155670166
aF11.761531829833984
aF11.761712074279785
aF11.761702537536621
aF11.761759757995605
aF11.76184368133545
aF11.761858940124512
aF11.761868476867676
asba.