(lp0
(i__main__
Pose
p1
(dp2
S'y'
p3
(lp4
F30.035938262939453
aF30.01986312866211
aF30.017732620239258
aF30.01738929748535
aF30.035743713378906
aF30.019453048706055
aF30.01748275756836
aF30.034486770629883
aF30.040752410888672
aF30.043045043945312
aF30.04574966430664
aF30.041015625
aF30.040119171142578
aF30.040119171142578
aF30.027759552001953
aF30.020742416381836
aF30.01394271850586
aF30.009532928466797
aF29.999425888061523
aF29.989965438842773
aF29.985328674316406
aF29.983518600463867
aF29.972095489501953
aF29.970991134643555
aF29.97079086303711
aF29.966934204101562
aF29.966215133666992
aF29.970388412475586
aF29.971229553222656
aF29.97411346435547
aF29.980390548706055
aF29.983299255371094
aF29.98541831970215
aF29.98615074157715
aF29.984756469726562
aF29.98467445373535
aF29.993852615356445
aF29.994487762451172
aF30.003860473632812
aF29.99694061279297
aF29.995187759399414
aF29.990772247314453
aF29.98058319091797
aF29.978883743286133
aF29.973709106445312
aF29.975767135620117
aF29.977079391479492
aF29.976377487182617
aF29.973920822143555
aF29.965791702270508
aF29.96161651611328
aF29.947622299194336
aF29.944385528564453
aF29.91317367553711
aF29.927125930786133
aF29.9488468170166
aF29.958791732788086
aF29.953113555908203
aF29.948572158813477
aF29.948165893554688
aF29.949369430541992
aF29.947593688964844
aF29.955175399780273
aF29.935325622558594
aF29.910436630249023
aF29.8968505859375
aF29.888044357299805
aF29.86602020263672
aF29.854948043823242
aF29.863462448120117
aF29.855571746826172
aF29.846542358398438
aF29.832395553588867
aF29.81548500061035
aF29.794294357299805
aF29.768774032592773
aF29.743186950683594
aF29.732498168945312
aF29.719003677368164
aF29.71894073486328
aF29.70966339111328
aF29.692869186401367
aF29.688814163208008
aF29.672788619995117
aF29.65361976623535
aF29.62999725341797
aF29.617944717407227
aF29.6087646484375
aF29.6080379486084
aF29.603843688964844
aF29.603628158569336
aF29.604501724243164
aF29.606002807617188
aF29.60466766357422
aF29.593538284301758
aF29.59760093688965
aF29.602161407470703
aF29.60840606689453
aF29.613975524902344
aF29.615398406982422
aF29.622758865356445
aF29.639427185058594
aF29.641958236694336
aF29.637306213378906
aF29.633224487304688
aF29.629316329956055
aF29.630809783935547
aF29.630260467529297
aF29.622888565063477
aF29.60791015625
aF29.599557876586914
aF29.599205017089844
aF29.596580505371094
aF29.58963394165039
aF29.584083557128906
aF29.590478897094727
aF29.576942443847656
aF29.56948471069336
aF29.560009002685547
aF29.549596786499023
aF29.547277450561523
aF29.52875328063965
aF29.5131893157959
aF29.508018493652344
aF29.50885581970215
aF29.5029354095459
aF29.491012573242188
aF29.484081268310547
aF29.478166580200195
aF29.470623016357422
aF29.459762573242188
aF29.460731506347656
aF29.45016860961914
aF29.459741592407227
aF29.422985076904297
aF29.414628982543945
aF29.397136688232422
aF29.374473571777344
aF29.34856414794922
aF29.33441734313965
aF29.317363739013672
aF29.30573272705078
aF29.297502517700195
aF29.285669326782227
aF29.268566131591797
aF29.270423889160156
aF29.274389266967773
aF29.279573440551758
aF29.284381866455078
aF29.28693199157715
aF29.29128646850586
aF29.295930862426758
aF29.29338836669922
aF29.304603576660156
aF29.3225040435791
aF29.335542678833008
aF29.361228942871094
aF29.382089614868164
aF29.395463943481445
aF29.403226852416992
aF29.405174255371094
aF29.406984329223633
aF29.41144561767578
aF29.412656784057617
aF29.413965225219727
aF29.411819458007812
aF29.405715942382812
aF29.40169906616211
aF29.392662048339844
aF29.38677406311035
aF29.377887725830078
aF29.366344451904297
aF29.354578018188477
aF29.340150833129883
aF29.328195571899414
aF29.30660629272461
aF29.29388427734375
aF29.282054901123047
aF29.266298294067383
aF29.255067825317383
aF29.24566078186035
aF29.23700714111328
aF29.224924087524414
aF29.216327667236328
aF29.207378387451172
aF29.191997528076172
aF29.175508499145508
aF29.167722702026367
aF29.155498504638672
aF29.14229965209961
aF29.121606826782227
aF29.121288299560547
aF29.121854782104492
aF29.126829147338867
aF29.129526138305664
aF29.132850646972656
aF29.1324462890625
aF29.134666442871094
aF29.140857696533203
aF29.147262573242188
aF29.151653289794922
aF29.155170440673828
aF29.155054092407227
aF29.166038513183594
aF29.16903305053711
aF29.17315101623535
aF29.18088150024414
aF29.184328079223633
aF29.19586181640625
aF29.20038414001465
aF29.20846939086914
aF29.21231460571289
aF29.214523315429688
aF29.225149154663086
aF29.230670928955078
aF29.255830764770508
aF29.262346267700195
aF29.291196823120117
aF29.31991958618164
aF29.33740997314453
aF29.366741180419922
aF29.395008087158203
aF29.438310623168945
aF29.4646053314209
aF29.513093948364258
aF29.5495662689209
aF29.582412719726562
aF29.622051239013672
aF29.6612606048584
aF29.709020614624023
aF29.71799087524414
aF29.714319229125977
aF29.7122802734375
aF29.71673583984375
aF29.7231502532959
aF29.754344940185547
aF29.773473739624023
aF29.779165267944336
aF29.786148071289062
aF29.791292190551758
aF29.776084899902344
aF29.776609420776367
aF29.782079696655273
aF29.782787322998047
aF29.788063049316406
aF29.795785903930664
aF29.796579360961914
aF29.804391860961914
aF29.81043243408203
aF29.8256893157959
aF29.8630428314209
aF29.875083923339844
aF29.89144515991211
aF29.903730392456055
aF29.92287826538086
aF29.938756942749023
aF29.965652465820312
aF30.001379013061523
aF30.043067932128906
aF30.081714630126953
aF30.140085220336914
aF30.170278549194336
aF30.212379455566406
aF30.294601440429688
aF30.338899612426758
aF30.38106918334961
aF30.430309295654297
aF30.4737606048584
aF30.545988082885742
aF30.59119415283203
aF30.63460922241211
aF30.677661895751953
aF30.742082595825195
aF30.790184020996094
aF30.831193923950195
aF30.8969669342041
aF30.941869735717773
aF31.006532669067383
aF31.049488067626953
aF31.097360610961914
aF31.164291381835938
aF31.203624725341797
aF31.266050338745117
aF31.309072494506836
aF31.352195739746094
aF31.418455123901367
aF31.462873458862305
aF31.526901245117188
aF31.590648651123047
aF31.632585525512695
aF31.70064926147461
aF31.77944564819336
aF31.831666946411133
aF31.89763832092285
aF31.939128875732422
aF31.980031967163086
aF32.07615280151367
aF32.09956359863281
aF32.172096252441406
aF32.2407112121582
aF32.282875061035156
aF32.3226203918457
aF32.40024948120117
aF32.456329345703125
aF32.514007568359375
aF32.56856918334961
aF32.642513275146484
aF32.68260192871094
aF32.751014709472656
aF32.79902267456055
aF32.8466796875
aF32.8936882019043
aF32.97214889526367
aF33.054222106933594
aF33.13652420043945
aF33.18964767456055
aF33.279151916503906
aF33.375484466552734
aF33.44062805175781
aF33.5020866394043
aF33.56637191772461
aF33.625545501708984
aF33.69224548339844
aF33.78080749511719
aF33.85971450805664
aF33.91511535644531
aF33.96807861328125
aF34.031986236572266
aF34.12187957763672
aF34.211177825927734
aF34.281166076660156
aF34.337162017822266
aF34.424259185791016
aF34.48263168334961
aF34.57115936279297
aF34.686641693115234
aF34.74516677856445
aF34.802947998046875
aF34.892730712890625
aF34.9911003112793
aF35.05570983886719
aF35.147315979003906
aF35.182682037353516
aF35.27153396606445
aF35.350425720214844
aF35.376197814941406
aF35.398406982421875
aF35.42412185668945
aF35.45211410522461
aF35.459014892578125
aF35.46212387084961
aF35.46506118774414
aF35.470069885253906
aF35.473506927490234
aF35.47481155395508
aF35.477386474609375
aF35.49371337890625
aF35.5306510925293
aF35.541603088378906
aF35.57329177856445
aF35.60452651977539
aF35.631229400634766
aF35.65986251831055
aF35.68854904174805
aF35.73375701904297
aF35.78942108154297
aF35.853919982910156
aF35.9031867980957
aF35.935577392578125
aF35.98490524291992
aF36.05133819580078
aF36.11081314086914
aF36.155765533447266
aF36.222801208496094
aF36.288734436035156
aF36.33320236206055
aF36.41432189941406
aF36.499305725097656
aF36.552982330322266
aF36.6325569152832
aF36.7431640625
aF36.771934509277344
aF36.85990905761719
aF36.929771423339844
aF37.043052673339844
aF37.14689636230469
aF37.25505447387695
aF37.32433319091797
aF37.4400749206543
aF37.517547607421875
aF37.594234466552734
aF37.708805084228516
aF37.78508377075195
aF37.89626693725586
aF38.007057189941406
aF38.08216857910156
aF38.19767379760742
aF38.31116485595703
aF38.39118194580078
aF38.508182525634766
aF38.58366394042969
aF38.6580924987793
aF38.80082321166992
aF38.838436126708984
aF38.945831298828125
aF39.01677322387695
aF39.08936309814453
aF39.23222732543945
aF39.266109466552734
aF39.37406539916992
aF39.44352722167969
aF39.552738189697266
aF39.657466888427734
aF39.73191833496094
aF39.80514144897461
aF39.9152946472168
aF39.98588562011719
aF40.09731674194336
aF40.207557678222656
aF40.2747802734375
aF40.38134765625
aF40.454627990722656
aF40.51348876953125
aF40.62601089477539
aF40.741310119628906
aF40.813560485839844
aF40.902835845947266
aF40.91645431518555
aF40.96644973754883
aF41.03883743286133
aF41.09246063232422
aF41.171024322509766
aF41.2481803894043
aF41.327720642089844
aF41.381710052490234
aF41.489376068115234
aF41.53587341308594
aF41.58277893066406
aF41.651206970214844
aF41.723243713378906
aF41.77070236206055
aF41.840179443359375
aF41.886287689208984
aF41.9369010925293
aF41.98395538330078
aF42.06193923950195
aF42.139400482177734
aF42.21513748168945
aF42.2679328918457
aF42.35288619995117
aF42.40867233276367
aF42.46721267700195
aF42.524864196777344
aF42.58760070800781
aF42.646888732910156
aF42.73854064941406
aF42.79684066772461
aF42.87974166870117
aF42.92970657348633
aF43.018585205078125
aF43.03700637817383
aF43.0802001953125
aF43.1405029296875
aF43.1956787109375
aF43.25453186035156
aF43.29219055175781
aF43.331844329833984
aF43.36610412597656
aF43.401126861572266
aF43.43240737915039
aF43.48567199707031
aF43.526607513427734
aF43.57423782348633
aF43.644264221191406
aF43.715919494628906
aF43.76822280883789
aF43.8203239440918
aF43.872093200683594
aF43.9500846862793
aF43.999908447265625
aF44.073692321777344
aF44.148651123046875
aF44.171600341796875
aF44.24567794799805
aF44.318016052246094
aF44.36711120605469
aF44.43962860107422
aF44.55561447143555
aF44.58619689941406
aF44.68132019042969
aF44.801998138427734
aF44.831302642822266
aF44.92081069946289
aF45.00910568237305
aF45.066776275634766
aF45.154998779296875
aF45.24415588378906
aF45.3033332824707
aF45.39326477050781
aF45.45561981201172
aF45.545040130615234
aF45.6383056640625
aF45.66847610473633
aF45.78492736816406
aF45.844627380371094
aF45.904544830322266
aF45.995201110839844
aF46.08494567871094
aF46.14639663696289
aF46.27534103393555
aF46.34376525878906
aF46.378658294677734
aF46.479244232177734
aF46.54241180419922
aF46.61026382446289
aF46.66083526611328
aF46.74947738647461
aF46.83340835571289
aF46.86103820800781
aF46.9556999206543
aF47.02159118652344
aF47.150543212890625
aF47.2437858581543
aF47.338035583496094
aF47.40278625488281
aF47.500484466552734
aF47.59852981567383
aF47.671199798583984
aF47.75960922241211
aF47.84516906738281
aF47.884239196777344
aF47.971065521240234
aF48.05836486816406
aF48.10714340209961
aF48.19978332519531
aF48.29167175292969
aF48.341304779052734
aF48.40713882446289
aF48.457942962646484
aF48.54872131347656
aF48.64010238647461
aF48.692283630371094
aF48.81184005737305
aF48.878746032714844
aF48.973262786865234
aF49.03644561767578
aF49.09867858886719
aF49.18803405761719
aF49.25029754638672
aF49.30815124511719
aF49.37100601196289
aF49.43514633178711
aF49.53153991699219
aF49.62578582763672
aF49.6934814453125
aF49.748470306396484
aF49.81623077392578
aF49.897945404052734
aF49.95112228393555
aF50.000648498535156
aF50.06608581542969
aF50.119361877441406
aF50.1578483581543
aF50.191410064697266
aF50.24317932128906
aF50.27473449707031
aF50.31895446777344
aF50.352996826171875
aF50.39674377441406
aF50.44745635986328
aF50.482208251953125
aF50.50880432128906
aF50.533443450927734
aF50.53519058227539
aF50.535675048828125
aF50.533077239990234
aF50.52583312988281
aF50.508445739746094
aF50.498321533203125
aF50.490699768066406
aF50.48057174682617
aF50.4735221862793
aF50.464664459228516
aF50.46357727050781
aF50.468345642089844
aF50.470909118652344
aF50.480018615722656
aF50.489845275878906
aF50.48564147949219
aF50.47947692871094
aF50.470863342285156
aF50.449947357177734
aF50.4495849609375
aF50.431278228759766
aF50.414390563964844
aF50.37965774536133
aF50.335693359375
aF50.301063537597656
aF50.24891662597656
aF50.1884651184082
aF50.14794921875
aF50.08625411987305
aF50.030860900878906
aF49.98216247558594
aF49.935237884521484
aF49.88923263549805
aF49.826080322265625
aF49.78847122192383
aF49.76768493652344
aF49.752201080322266
aF49.734336853027344
aF49.6970100402832
aF49.6804084777832
aF49.663578033447266
aF49.635746002197266
aF49.59294509887695
aF49.559444427490234
aF49.51665115356445
aF49.48381423950195
aF49.469024658203125
aF49.455413818359375
aF49.431915283203125
aF49.42605972290039
aF49.39960861206055
aF49.37254333496094
aF49.3541145324707
aF49.332454681396484
aF49.28977966308594
aF49.265785217285156
aF49.23198699951172
aF49.2155647277832
aF49.18294906616211
aF49.15251541137695
aF49.14704132080078
aF49.11012649536133
aF49.091556549072266
aF49.08110809326172
aF49.05971145629883
aF49.05158996582031
aF49.019596099853516
aF48.985198974609375
aF48.949581146240234
aF48.90321350097656
aF48.858463287353516
aF48.815093994140625
aF48.773292541503906
aF48.743614196777344
aF48.717899322509766
aF48.669612884521484
aF48.646751403808594
aF48.62662124633789
aF48.5968132019043
aF48.57212829589844
aF48.536529541015625
aF48.51292419433594
aF48.49125671386719
aF48.45793914794922
aF48.416046142578125
aF48.3885498046875
aF48.33656311035156
aF48.30488586425781
aF48.26056671142578
aF48.24763488769531
aF48.214969635009766
aF48.19499588012695
aF48.178123474121094
aF48.1264533996582
aF48.10115051269531
aF48.0139045715332
aF47.953792572021484
aF47.911746978759766
aF47.830810546875
aF47.733985900878906
aF47.64229965209961
aF47.575687408447266
aF47.463409423828125
aF47.3945198059082
aF47.24977111816406
aF47.17424011230469
aF47.138580322265625
aF47.0263671875
aF46.912353515625
aF46.80107879638672
aF46.72550964355469
aF46.615020751953125
aF46.50298309326172
aF46.4273567199707
aF46.30608367919922
aF46.2347526550293
aF46.1202392578125
aF46.01329040527344
aF45.97569274902344
aF45.89960861206055
aF45.821678161621094
aF45.70821762084961
aF45.63300704956055
aF45.52082443237305
aF45.44548034667969
aF45.287269592285156
aF45.21284103393555
aF45.098663330078125
aF44.98301315307617
aF44.908531188964844
aF44.72346115112305
aF44.648948669433594
aF44.536643981933594
aF44.46564483642578
aF44.353553771972656
aF44.24116516113281
aF44.1671257019043
aF44.05891418457031
aF43.95185089111328
aF43.8821907043457
aF43.78489303588867
aF43.67916488647461
aF43.61052322387695
aF43.50187683105469
aF43.391380310058594
aF43.326114654541016
aF43.2152099609375
aF43.100555419921875
aF43.03184509277344
aF42.922752380371094
aF42.8084716796875
aF42.733604431152344
aF42.62228012084961
aF42.54664611816406
aF42.4367790222168
aF42.28947830200195
aF42.1785774230957
aF42.067447662353516
aF41.99330139160156
aF41.8876838684082
aF41.776084899902344
aF41.665164947509766
aF41.553253173828125
aF41.482421875
aF41.378482818603516
aF41.276824951171875
aF41.201297760009766
aF41.13514709472656
aF41.066734313964844
aF40.99393081665039
aF40.88352584838867
aF40.771339416503906
aF40.695892333984375
aF40.58372497558594
aF40.471893310546875
aF40.39360809326172
aF40.2790641784668
aF40.164615631103516
aF40.0905876159668
aF40.01188659667969
aF39.933563232421875
aF39.81319046020508
aF39.73411178588867
aF39.61268997192383
aF39.52988052368164
aF39.416019439697266
aF39.28461837768555
aF39.24778747558594
aF39.12189865112305
aF39.040748596191406
aF38.92243576049805
aF38.841651916503906
aF38.72514343261719
aF38.638633728027344
aF38.56301498413086
aF38.47352600097656
aF38.313865661621094
aF38.23487854003906
aF38.155391693115234
aF38.07493209838867
aF37.958858489990234
aF37.83979415893555
aF37.76203918457031
aF37.700504302978516
aF37.54283142089844
aF37.45909118652344
aF37.37602615356445
aF37.25586700439453
aF37.167415618896484
aF37.092350006103516
aF37.00831604003906
aF36.934173583984375
aF36.8171501159668
aF36.739437103271484
aF36.626556396484375
aF36.514060974121094
aF36.439212799072266
aF36.36444854736328
aF36.28879165649414
aF36.178646087646484
aF36.108375549316406
aF36.03457260131836
aF35.926170349121094
aF35.85441970825195
aF35.7446174621582
aF35.67200469970703
aF35.59707260131836
aF35.488712310791016
aF35.45097351074219
aF35.344818115234375
aF35.27351760864258
aF35.16530990600586
aF35.09873962402344
aF35.025543212890625
aF34.909725189208984
aF34.833744049072266
aF34.720218658447266
aF34.608673095703125
aF34.5332145690918
aF34.45994186401367
aF34.38849639892578
aF34.28233337402344
aF34.222572326660156
aF34.11935043334961
aF34.02162170410156
aF33.9532356262207
aF33.88371658325195
aF33.749168395996094
aF33.713436126708984
aF33.61739730834961
aF33.551109313964844
aF33.44211196899414
aF33.36734390258789
aF33.29194259643555
aF33.18179702758789
aF33.108619689941406
aF33.033565521240234
aF32.92400360107422
aF32.81442642211914
aF32.74403381347656
aF32.669979095458984
aF32.60361862182617
aF32.507198333740234
aF32.34897232055664
aF32.269447326660156
aF32.16123962402344
aF32.055450439453125
aF32.002105712890625
aF31.927682876586914
aF31.878337860107422
aF31.781532287597656
aF31.685108184814453
aF31.669301986694336
aF31.570140838623047
aF31.509845733642578
aF31.399578094482422
aF31.32589340209961
aF31.213788986206055
aF31.143444061279297
aF31.038358688354492
aF30.97669219970703
aF30.93197250366211
aF30.89258575439453
aF30.861377716064453
aF30.83710479736328
aF30.805641174316406
aF30.779708862304688
aF30.755226135253906
aF30.7182674407959
aF30.693679809570312
aF30.668498992919922
aF30.649423599243164
aF30.633207321166992
aF30.618083953857422
aF30.578231811523438
aF30.554048538208008
aF30.52978515625
aF30.489614486694336
aF30.464509963989258
aF30.43634605407715
aF30.3957576751709
aF30.371828079223633
aF30.32772445678711
aF30.32067108154297
aF30.302717208862305
aF30.26201629638672
aF30.25220489501953
aF30.204221725463867
aF30.196914672851562
aF30.18429183959961
aF30.198373794555664
aF30.191200256347656
aF30.190771102905273
aF30.190780639648438
aF30.194286346435547
aF30.194292068481445
aF30.202199935913086
aF30.199726104736328
aF30.189189910888672
aF30.188060760498047
aF30.188060760498047
aF30.191221237182617
aF30.197359085083008
aF30.201719284057617
aF30.19098472595215
aF30.210166931152344
aF30.213850021362305
aF30.215497970581055
aF30.222143173217773
aF30.254167556762695
aF30.25442886352539
aF30.283641815185547
aF30.287675857543945
aF30.302961349487305
aF30.3349552154541
aF30.33942413330078
aF30.355398178100586
aF30.368776321411133
aF30.378101348876953
aF30.39476776123047
aF30.41498374938965
aF30.436786651611328
aF30.432435989379883
aF30.439584732055664
aF30.428014755249023
aF30.427892684936523
aF30.425424575805664
aF30.4263973236084
aF30.44060707092285
aF30.446090698242188
aF30.444643020629883
aF30.443988800048828
aF30.44558334350586
aF30.44509506225586
aF30.44438934326172
aF30.44476318359375
aF30.452770233154297
aF30.453205108642578
aF30.45557403564453
aF30.468534469604492
aF30.467609405517578
aF30.4665470123291
aF30.466371536254883
aF30.46637725830078
aF30.466398239135742
aF30.38071060180664
aF30.368850708007812
aF30.380508422851562
aF30.383386611938477
aF30.43027114868164
aF30.434221267700195
aF30.434764862060547
aF30.45672607421875
aF30.471960067749023
aF30.476133346557617
aF30.482460021972656
aF30.503808975219727
aF30.522216796875
asS'timeStamp'
p5
(lp6
F0.02964949607849121
aF0.14052534103393555
aF0.25890016555786133
aF0.3972342014312744
aF0.5062646865844727
aF0.6658596992492676
aF0.8345997333526611
aF0.9357137680053711
aF1.0362119674682617
aF1.151533603668213
aF1.2462162971496582
aF1.3511223793029785
aF1.483922004699707
aF1.5783019065856934
aF1.689223289489746
aF1.815181016921997
aF1.9173686504364014
aF2.0273263454437256
aF2.1237540245056152
aF2.2208170890808105
aF2.3182716369628906
aF2.4470207691192627
aF2.547146797180176
aF2.645629405975342
aF2.748800754547119
aF2.846778392791748
aF2.9522268772125244
aF3.1173431873321533
aF3.2220888137817383
aF3.320326328277588
aF3.4318840503692627
aF3.5420451164245605
aF3.652255058288574
aF3.7483065128326416
aF3.8317697048187256
aF3.9900624752044678
aF4.084674119949341
aF4.177647113800049
aF4.281803607940674
aF4.381284475326538
aF4.520062208175659
aF4.643628358840942
aF4.740188837051392
aF4.823017120361328
aF4.986341714859009
aF5.083616018295288
aF5.214679002761841
aF5.312459468841553
aF5.444787263870239
aF5.585397243499756
aF5.680773496627808
aF5.782599687576294
aF5.944150924682617
aF6.0403687953948975
aF6.1774890422821045
aF6.279283285140991
aF6.375024795532227
aF6.475399494171143
aF6.577244997024536
aF6.738186836242676
aF6.83881688117981
aF6.945470333099365
aF7.045719623565674
aF7.140830755233765
aF7.246811151504517
aF7.383849382400513
aF7.487993478775024
aF7.5822553634643555
aF7.737074136734009
aF7.8379387855529785
aF7.973677635192871
aF8.073495149612427
aF8.177248001098633
aF8.283613681793213
aF8.381946086883545
aF8.519790410995483
aF8.648717880249023
aF8.747603178024292
aF8.88272213935852
aF8.978839635848999
aF9.094462156295776
aF9.21305513381958
aF9.313467979431152
aF9.407809019088745
aF9.522507190704346
aF9.63532829284668
aF9.784148216247559
aF9.950621366500854
aF10.01963996887207
aF10.12021541595459
aF10.260756492614746
aF10.385745286941528
aF10.493869304656982
aF10.60826826095581
aF10.72250509262085
aF10.833215951919556
aF10.927408695220947
aF11.033688068389893
aF11.127116680145264
aF11.230969190597534
aF11.400369644165039
aF11.528315305709839
aF11.639977216720581
aF11.733055591583252
aF11.843104600906372
aF11.940052509307861
aF12.064367771148682
aF12.199264764785767
aF12.3304922580719
aF12.46751880645752
aF12.562708854675293
aF12.659730911254883
aF12.79530644416809
aF12.92903447151184
aF13.068268299102783
aF13.200628995895386
aF13.295309782028198
aF13.394806861877441
aF13.525585651397705
aF13.632532358169556
aF13.728474378585815
aF13.86754322052002
aF13.999001502990723
aF14.097280025482178
aF14.199346542358398
aF14.326499223709106
aF14.472452878952026
aF14.598471879959106
aF14.696046352386475
aF14.796661138534546
aF14.931609153747559
aF15.041408061981201
aF15.134672403335571
aF15.271560192108154
aF15.39970088005066
aF15.501517057418823
aF15.60732626914978
aF15.741695642471313
aF15.87940001487732
aF15.9969003200531
aF16.104944944381714
aF16.206875562667847
aF16.305697917938232
aF16.40586757659912
aF16.57404613494873
aF16.672729969024658
aF16.77002739906311
aF16.86505675315857
aF16.983065128326416
aF17.086084127426147
aF17.182886123657227
aF17.297931671142578
aF17.391300678253174
aF17.52355456352234
aF17.691709280014038
aF17.785565614700317
aF17.930583000183105
aF18.035564184188843
aF18.130991220474243
aF18.287790775299072
aF18.388421535491943
aF18.52825093269348
aF18.62363839149475
aF18.723372220993042
aF18.825645208358765
aF18.924726963043213
aF19.085980892181396
aF19.181360960006714
aF19.32517981529236
aF19.422462940216064
aF19.51583743095398
aF19.630295753479004
aF19.73125410079956
aF19.85943841934204
aF19.989740133285522
aF20.122156858444214
aF20.290912628173828
aF20.38688611984253
aF20.52687931060791
aF20.629334926605225
aF20.722915410995483
aF20.82143521308899
aF20.979639053344727
aF21.091148376464844
aF21.184210300445557
aF21.318838834762573
aF21.420099020004272
aF21.55091094970703
aF21.686209201812744
aF21.790563106536865
aF21.955610036849976
aF22.03012228012085
aF22.124645471572876
aF22.285038232803345
aF22.393131256103516
aF22.487733602523804
aF22.595622301101685
aF22.72713804244995
aF22.88983964920044
aF23.022289752960205
aF23.1175799369812
aF23.216482877731323
aF23.319135427474976
aF23.486472129821777
aF23.58790159225464
aF23.75059151649475
aF23.827476501464844
aF23.924368143081665
aF24.086078643798828
aF24.1940655708313
aF24.28932762145996
aF24.432143688201904
aF24.52493929862976
aF24.62085223197937
aF24.749298095703125
aF24.855212211608887
aF24.95204496383667
aF25.058932304382324
aF25.222564697265625
aF25.321460008621216
aF25.426339626312256
aF25.555781602859497
aF25.6842839717865
aF25.79571008682251
aF25.95635986328125
aF26.03107261657715
aF26.125494956970215
aF26.221789598464966
aF26.35300374031067
aF26.48671531677246
aF26.625006437301636
aF26.72535753250122
aF26.82449507713318
aF26.930736303329468
aF27.0679612159729
aF27.267931938171387
aF27.378730297088623
aF27.471933364868164
aF27.579074382781982
aF27.673628330230713
aF27.840739011764526
aF27.937709093093872
aF28.074049711227417
aF28.17467999458313
aF28.26740574836731
aF28.42112135887146
aF28.546128511428833
aF28.675949573516846
aF28.774110317230225
aF28.869566440582275
aF29.067817449569702
aF29.17331576347351
aF29.26647973060608
aF29.38092350959778
aF29.47405433654785
aF29.576870918273926
aF29.67085862159729
aF29.841835498809814
aF29.981589317321777
aF30.074325561523438
aF30.26668667793274
aF30.37991738319397
aF30.47482919692993
aF30.669788360595703
aF30.777201175689697
aF30.87228560447693
aF30.983271598815918
aF31.078879833221436
aF31.23585820198059
aF31.345076084136963
aF31.448471784591675
aF31.542848348617554
aF31.666659116744995
aF31.77349615097046
aF31.86864686012268
aF32.04083466529846
aF32.141316413879395
aF32.27961230278015
aF32.376044511795044
aF32.50243639945984
aF32.610424280166626
aF32.736162424087524
aF32.8736937046051
aF32.97765278816223
aF33.073899269104004
aF33.21635174751282
aF33.33007478713989
aF33.476924657821655
aF33.614829301834106
aF33.74111032485962
aF33.88007164001465
aF34.042097091674805
aF34.140456438064575
aF34.27873611450195
aF34.380990743637085
aF34.514174461364746
aF34.66913175582886
aF34.73201584815979
aF34.877158403396606
aF35.04362654685974
aF35.13955473899841
aF35.25552248954773
aF35.38397741317749
aF35.48027014732361
aF35.588576793670654
aF35.6836576461792
aF35.848249673843384
aF35.941338539123535
aF36.08404231071472
aF36.190773010253906
aF36.288443088531494
aF36.38683342933655
aF36.547746419906616
aF36.676090478897095
aF36.85025334358215
aF36.94731688499451
aF37.08242106437683
aF37.2224555015564
aF37.34343767166138
aF37.43832731246948
aF37.53587007522583
aF37.63025760650635
aF37.73920154571533
aF37.89424681663513
aF38.02564787864685
aF38.13505172729492
aF38.22919201850891
aF38.34278845787048
aF38.500036001205444
aF38.63132643699646
aF38.775925636291504
aF38.877504110336304
aF39.03519821166992
aF39.16707921028137
aF39.27910232543945
aF39.46691632270813
aF39.57594180107117
aF39.7017388343811
aF39.80604362487793
aF39.970898389816284
aF40.107097864151
aF40.20863652229309
aF40.30338931083679
aF40.43707251548767
aF40.574167251586914
aF40.706774950027466
aF40.829559087753296
aF40.945478200912476
aF41.108017683029175
aF41.20364761352539
aF41.30739617347717
aF41.43601059913635
aF41.60015940666199
aF41.6954870223999
aF41.802820682525635
aF41.90107202529907
aF42.061357736587524
aF42.21722340583801
aF42.31014800071716
aF42.45421099662781
aF42.58258628845215
aF42.69873642921448
aF42.798174142837524
aF42.89642667770386
aF43.06151056289673
aF43.23211717605591
aF43.39969325065613
aF43.57879161834717
aF43.67934846878052
aF43.85185241699219
aF44.03102707862854
aF44.190380811691284
aF44.28815817832947
aF44.452362060546875
aF44.59441328048706
aF44.68683218955994
aF44.85157299041748
aF44.98089241981506
aF45.11099886894226
aF45.24887943267822
aF45.410991191864014
aF45.5083212852478
aF45.652920722961426
aF45.74751830101013
aF45.895174503326416
aF46.04086685180664
aF46.20121669769287
aF46.29714059829712
aF46.4361777305603
aF46.534034967422485
aF46.63484239578247
aF46.800679445266724
aF46.8959858417511
aF47.02907848358154
aF47.192970514297485
aF47.30182719230652
aF47.428022146224976
aF47.59826302528381
aF47.695923805236816
aF47.85625338554382
aF47.93156957626343
aF48.030306339263916
aF48.2309672832489
aF48.296440839767456
aF48.430277824401855
aF48.53265380859375
aF48.630918979644775
aF48.82750988006592
aF48.89608573913574
aF49.02412438392639
aF49.138399600982666
aF49.29343819618225
aF49.46052050590515
aF49.53742480278015
aF49.63373351097107
aF49.7993278503418
aF49.8988881111145
aF50.059571743011475
aF50.15972113609314
aF50.30156946182251
aF50.431325912475586
aF50.52714943885803
aF50.62854743003845
aF50.78528642654419
aF50.924336194992065
aF51.02356839179993
aF51.22315526008606
aF51.30387806892395
aF51.43616437911987
aF51.565969944000244
aF51.69350481033325
aF51.850757360458374
aF51.97854280471802
aF52.11833930015564
aF52.24465465545654
aF52.41146540641785
aF52.52947402000427
aF52.641672134399414
aF52.78353929519653
aF52.920719146728516
aF53.01649808883667
aF53.17576336860657
aF53.281747579574585
aF53.37799787521362
aF53.478748083114624
aF53.642173290252686
aF53.77404856681824
aF53.913485527038574
aF54.04190397262573
aF54.17647576332092
aF54.2864944934845
aF54.3798885345459
aF54.47601628303528
aF54.56925010681152
aF54.67846202850342
aF54.83697700500488
aF54.937758922576904
aF55.0781192779541
aF55.17925715446472
aF55.342992305755615
aF55.436012744903564
aF55.54105997085571
aF55.67827916145325
aF55.842894315719604
aF55.983009815216064
aF56.08517861366272
aF56.17871618270874
aF56.283118724823
aF56.37629199028015
aF56.4831976890564
aF56.64715361595154
aF56.76221013069153
aF56.85668134689331
aF56.99773049354553
aF57.12540149688721
aF57.222986698150635
aF57.322026014328
aF57.465259313583374
aF57.59735083580017
aF57.693119287490845
aF57.85092782974243
aF57.97055268287659
aF58.034217834472656
aF58.19924354553223
aF58.32687187194824
aF58.46098756790161
aF58.595518827438354
aF58.76691031455994
aF58.85983657836914
aF59.006754875183105
aF59.16690945625305
aF59.26357936859131
aF59.39936423301697
aF59.52972602844238
aF59.63234734535217
aF59.77437233924866
aF59.92434859275818
aF60.040308475494385
aF60.197919607162476
aF60.29191994667053
aF60.45735502243042
aF60.56626272201538
aF60.65992450714111
aF60.820770263671875
aF60.92084002494812
aF61.01655626296997
aF61.17859125137329
aF61.321577072143555
aF61.43213129043579
aF61.630881547927856
aF61.706061601638794
aF61.80536508560181
aF61.93101954460144
aF62.03397822380066
aF62.12746620178223
aF62.237128496170044
aF62.39766979217529
aF62.50047326087952
aF62.6013925075531
aF62.73101258277893
aF62.83813238143921
aF63.06329369544983
aF63.196250438690186
aF63.33226943016052
aF63.43825173377991
aF63.59802031517029
aF63.73351526260376
aF63.83905577659607
aF64.00014019012451
aF64.13041400909424
aF64.23856496810913
aF64.39272713661194
aF64.52776312828064
aF64.63710641860962
aF64.79948115348816
aF64.89829468727112
aF65.03332996368408
aF65.12736129760742
aF65.23807430267334
aF65.39691019058228
aF65.53414154052734
aF65.63541650772095
aF65.83419370651245
aF65.9282443523407
aF66.06659173965454
aF66.1637396812439
aF66.29133725166321
aF66.42896747589111
aF66.52208304405212
aF66.62702298164368
aF66.72240281105042
aF66.8222644329071
aF66.98041534423828
aF67.11990356445312
aF67.22418594360352
aF67.31847524642944
aF67.45552325248718
aF67.58527398109436
aF67.69492554664612
aF67.80774927139282
aF67.95153522491455
aF68.07041263580322
aF68.18605875968933
aF68.30953454971313
aF68.45353960990906
aF68.55544018745422
aF68.67261791229248
aF68.79760909080505
aF68.91286182403564
aF69.03088903427124
aF69.18499445915222
aF69.31453061103821
aF69.43773007392883
aF69.55723786354065
aF69.6461455821991
aF69.78860998153687
aF69.90433859825134
aF70.05000472068787
aF70.1573576927185
aF70.28707456588745
aF70.40158462524414
aF70.51670694351196
aF70.64448833465576
aF70.7949812412262
aF70.9693512916565
aF71.075923204422
aF71.1966609954834
aF71.35276937484741
aF71.47611927986145
aF71.60546088218689
aF71.75816249847412
aF71.88888955116272
aF72.00394344329834
aF72.07585287094116
aF72.19193935394287
aF72.36004328727722
aF72.47921013832092
aF72.58944153785706
aF72.75377464294434
aF72.87513256072998
aF72.99904608726501
aF73.15245699882507
aF73.27782940864563
aF73.39794540405273
aF73.50012302398682
aF73.6020336151123
aF73.73544311523438
aF73.87022542953491
aF73.99480533599854
aF74.0765790939331
aF74.20104765892029
aF74.36917161941528
aF74.47070455551147
aF74.59631848335266
aF74.75336194038391
aF74.87594723701477
aF74.9896309375763
aF75.1579315662384
aF75.27739977836609
aF75.39292860031128
aF75.53153729438782
aF75.69276189804077
aF75.80983901023865
aF75.95408463478088
aF76.07175588607788
aF76.21269106864929
aF76.27523422241211
aF76.43282461166382
aF76.56149435043335
aF76.67266035079956
aF76.80842447280884
aF76.95882964134216
aF77.06128025054932
aF77.15956377983093
aF77.32199454307556
aF77.42792439460754
aF77.55072093009949
aF77.68506860733032
aF77.81267285346985
aF77.95891427993774
aF78.06508803367615
aF78.2018370628357
aF78.35416531562805
aF78.46594142913818
aF78.59994149208069
aF78.71632528305054
aF78.82403135299683
aF78.94099760055542
aF79.11287784576416
aF79.22144818305969
aF79.35594630241394
aF79.46336579322815
aF79.59862923622131
aF79.72123718261719
aF79.82405519485474
aF79.95317530632019
aF80.06231117248535
aF80.21621251106262
aF80.34669995307922
aF80.4937493801117
aF80.5912082195282
aF80.72780919075012
aF80.8734757900238
aF80.93638205528259
aF81.09697604179382
aF81.209392786026
aF81.32931160926819
aF81.42742776870728
aF81.62387347221375
aF81.72646951675415
aF81.82666969299316
aF81.99864172935486
aF82.16578340530396
aF82.29721355438232
aF82.42195463180542
aF82.53303718566895
aF82.62960934638977
aF82.83104014396667
aF82.92783856391907
aF83.02168273925781
aF83.16803765296936
aF83.2989706993103
aF83.42219185829163
aF83.56080365180969
aF83.7016270160675
aF83.82646036148071
aF83.95500493049622
aF84.09699845314026
aF84.19108986854553
aF84.35361433029175
aF84.46415734291077
aF84.52599120140076
aF84.62510371208191
aF84.73124051094055
aF84.89731550216675
aF84.99505805969238
aF85.121755361557
aF85.21887516975403
aF85.42677783966064
aF85.55718541145325
aF85.70642495155334
aF85.82676720619202
aF85.9412841796875
aF86.17291331291199
aF86.30411577224731
aF86.43682289123535
aF86.54426765441895
aF86.68023610115051
aF86.83750653266907
aF86.94544768333435
aF87.07318782806396
aF87.21073198318481
aF87.33247756958008
aF87.48062705993652
aF87.6338267326355
aF87.73821258544922
aF87.86714386940002
aF88.04505062103271
aF88.13965010643005
aF88.29698896408081
aF88.44323682785034
aF88.54382824897766
aF88.6751503944397
aF88.83199644088745
aF88.93353486061096
aF89.07879114151001
aF89.20366644859314
aF89.33270168304443
aF89.57318329811096
aF89.70393586158752
aF89.83730483055115
aF89.94626593589783
aF90.1077446937561
aF90.20851755142212
aF90.37144207954407
aF90.52049994468689
aF90.61720705032349
aF90.77227735519409
aF90.94186115264893
aF91.00362515449524
aF91.14493155479431
aF91.26452159881592
aF91.34579801559448
aF91.51656365394592
aF91.6088056564331
aF91.76946973800659
aF91.89843416213989
aF92.02851986885071
aF92.16515636444092
aF92.29535269737244
aF92.43068790435791
aF92.53947234153748
aF92.65044641494751
aF92.74586820602417
aF92.89315104484558
aF93.0015115737915
aF93.14276075363159
aF93.25317597389221
aF93.37029123306274
aF93.53784394264221
aF93.60226321220398
aF93.74471235275269
aF93.8496606349945
aF93.960533618927
aF94.08750224113464
aF94.20071268081665
aF94.33119106292725
aF94.42589282989502
aF94.52540016174316
aF94.73077344894409
aF94.85206484794617
aF94.93533062934875
aF95.05507516860962
aF95.16259598731995
aF95.33474040031433
aF95.43257093429565
aF95.53529000282288
aF95.7335889339447
aF95.82719826698303
aF95.93809795379639
aF96.09592127799988
aF96.19488072395325
aF96.29033970832825
aF96.402822971344
aF96.49877381324768
aF96.62893891334534
aF96.73063349723816
aF96.89209771156311
aF97.00029945373535
aF97.12920594215393
aF97.22855401039124
aF97.33582806587219
aF97.49459838867188
aF97.59899806976318
aF97.69252014160156
aF97.82136344909668
aF97.93076610565186
aF98.09033346176147
aF98.19280791282654
aF98.28752326965332
aF98.40220546722412
aF98.50048184394836
aF98.62946557998657
aF98.74288630485535
aF98.88603401184082
aF98.99497056007385
aF99.08720469474792
aF99.22802758216858
aF99.35527014732361
aF99.484530210495
aF99.62511324882507
aF99.73224830627441
aF99.8325355052948
aF99.93229961395264
aF100.09038472175598
aF100.20340275764465
aF100.33282709121704
aF100.48509669303894
aF100.58597373962402
aF100.68448996543884
aF100.87987089157104
aF100.9431562423706
aF101.08307242393494
aF101.18397164344788
aF101.31102895736694
aF101.41521906852722
aF101.54739761352539
aF101.67816805839539
aF101.77702331542969
aF101.8756833076477
aF102.03875660896301
aF102.14870047569275
aF102.28355121612549
aF102.37660098075867
aF102.4862494468689
aF102.61082911491394
aF102.77076601982117
aF102.88720512390137
aF103.04411816596985
aF103.14913129806519
aF103.29202437400818
aF103.35598015785217
aF103.48787713050842
aF103.61381554603577
aF103.75207304954529
aF103.85506534576416
aF103.95399522781372
aF104.0899293422699
aF104.2330915927887
aF104.3469545841217
aF104.48489141464233
aF104.59499025344849
aF104.70928621292114
aF104.819087266922
aF104.917062997818
aF105.01851391792297
aF105.1468391418457
aF105.29006052017212
aF105.4242091178894
aF105.51865649223328
aF105.62010502815247
aF105.74792265892029
aF105.88969349861145
aF105.99698901176453
aF106.0904791355133
aF106.21366763114929
aF106.29459595680237
aF106.43153619766235
aF106.52185368537903
aF106.62653803825378
aF106.75418996810913
aF106.88482451438904
aF106.99958801269531
aF107.11466598510742
aF107.22783517837524
aF107.35182619094849
aF107.48158836364746
aF107.58818078041077
aF107.72119784355164
aF107.8371410369873
aF107.94849896430969
aF108.0279815196991
aF108.18626093864441
aF108.31296396255493
aF108.41544198989868
aF108.54696440696716
aF108.63999247550964
aF108.7532742023468
aF108.81598258018494
aF108.98575353622437
aF109.11458396911621
aF109.21567988395691
aF109.34369421005249
aF109.43829083442688
aF109.58111357688904
aF109.7110526561737
aF109.8435263633728
aF109.98142910003662
aF110.08806371688843
aF110.20751428604126
aF110.3112518787384
aF110.40683960914612
aF110.54506731033325
aF110.61067605018616
aF110.77717852592468
aF110.8754494190216
aF111.03774070739746
aF111.15071058273315
aF111.28177618980408
aF111.38423371315002
aF111.51029205322266
aF111.64073729515076
aF111.77738428115845
aF111.88074684143066
aF111.98177742958069
aF112.0880298614502
aF112.21814107894897
aF112.35082530975342
aF112.44401049613953
aF112.5859899520874
aF112.69701290130615
aF112.86333060264587
aF112.94352984428406
aF113.04179620742798
aF113.17132711410522
aF113.2955424785614
aF113.3751049041748
aF113.50118160247803
aF113.62475228309631
aF113.74072217941284
aF113.86150002479553
aF113.9472770690918
aF114.07333040237427
aF114.24201893806458
aF114.39773869514465
aF114.46958756446838
aF114.57913255691528
aF114.67772626876831
aF114.82829022407532
aF114.94500827789307
aF115.06345343589783
aF115.14262962341309
aF115.27858805656433
aF115.39892482757568
aF115.5002191066742
aF115.63704419136047
aF115.74060273170471
aF115.8470287322998
aF116.0017557144165
aF116.10899066925049
aF116.24651885032654
asS'angle'
p7
(lp8
F-0.06149699166417122
aF-0.08153115212917328
aF-0.08654174953699112
aF-0.08309487998485565
aF-0.06217885762453079
aF-0.08509749919176102
aF-0.08299662917852402
aF-0.06118925288319588
aF-0.045137807726860046
aF-0.028641697019338608
aF-0.015505490824580193
aF-0.0051998114213347435
aF0.016380511224269867
aF0.016380511224269867
aF0.0302041657269001
aF0.03562583401799202
aF0.040905024856328964
aF0.04461316764354706
aF0.0526738241314888
aF0.05832337215542793
aF0.06337270885705948
aF0.06499333679676056
aF0.07146299630403519
aF0.07147490233182907
aF0.0729333907365799
aF0.07344822585582733
aF0.07328424602746964
aF0.07213932275772095
aF0.0698668584227562
aF0.07212933152914047
aF0.07091975957155228
aF0.07127164304256439
aF0.06940082460641861
aF0.0689709261059761
aF0.06409240514039993
aF0.05173710361123085
aF0.037045110017061234
aF0.03750162944197655
aF0.020897459238767624
aF0.013623379170894623
aF0.01328250765800476
aF0.013117696158587933
aF0.011849888600409031
aF0.015323477797210217
aF0.01821702904999256
aF0.020950501784682274
aF0.022028710693120956
aF0.023062795400619507
aF0.025232288986444473
aF0.030054597184062004
aF0.030561478808522224
aF0.03140245005488396
aF0.02731274999678135
aF0.02769598178565502
aF0.022103847935795784
aF0.01751423440873623
aF0.009904105216264725
aF0.0031498491298407316
aF1.528487518953625e-05
aF-0.0018867423059418797
aF-0.011291968636214733
aF-0.03432631492614746
aF-0.06316757947206497
aF-0.09982585161924362
aF-0.14687500894069672
aF-0.17071455717086792
aF-0.1736898422241211
aF-0.17647990584373474
aF-0.17882835865020752
aF-0.17724540829658508
aF-0.18616855144500732
aF-0.1897488534450531
aF-0.19042561948299408
aF-0.19087563455104828
aF-0.18751871585845947
aF-0.18807607889175415
aF-0.18237899243831635
aF-0.1787026971578598
aF-0.1839364469051361
aF-0.18349429965019226
aF-0.18685728311538696
aF-0.19153304398059845
aF-0.1953764110803604
aF-0.18893881142139435
aF-0.18597041070461273
aF-0.17608852684497833
aF-0.16941386461257935
aF-0.1668013483285904
aF-0.16844844818115234
aF-0.16530650854110718
aF-0.17062431573867798
aF-0.17207911610603333
aF-0.17223578691482544
aF-0.16547541320323944
aF-0.16328999400138855
aF-0.15704387426376343
aF-0.15401530265808105
aF-0.14953625202178955
aF-0.15095259249210358
aF-0.14644953608512878
aF-0.1459309160709381
aF-0.13658881187438965
aF-0.13152600824832916
aF-0.13383358716964722
aF-0.13569612801074982
aF-0.13383591175079346
aF-0.13462311029434204
aF-0.1407673954963684
aF-0.14297951757907867
aF-0.15177017450332642
aF-0.1500905305147171
aF-0.15159142017364502
aF-0.15177147090435028
aF-0.15072500705718994
aF-0.14359675347805023
aF-0.14048810303211212
aF-0.13964024186134338
aF-0.13367189466953278
aF-0.1331643909215927
aF-0.1271388679742813
aF-0.12839941680431366
aF-0.124559186398983
aF-0.1289653331041336
aF-0.1344088315963745
aF-0.13672105967998505
aF-0.14072930812835693
aF-0.1495792418718338
aF-0.15568724274635315
aF-0.15926611423492432
aF-0.1651805192232132
aF-0.16859488189220428
aF-0.18741682171821594
aF-0.22685039043426514
aF-0.23195241391658783
aF-0.2285197228193283
aF-0.20718851685523987
aF-0.19373701512813568
aF-0.18286803364753723
aF-0.1709854006767273
aF-0.1648155301809311
aF-0.12117010354995728
aF-0.08927204459905624
aF-0.0224726852029562
aF0.06224086508154869
aF0.11929051578044891
aF0.12385115027427673
aF0.11723775416612625
aF0.12083238363265991
aF0.11986128985881805
aF0.12262027710676193
aF0.12124644219875336
aF0.134314626455307
aF0.1739257127046585
aF0.266832172870636
aF0.3794217109680176
aF0.40976059436798096
aF0.4163527190685272
aF0.41073206067085266
aF0.41144388914108276
aF0.40895479917526245
aF0.40552645921707153
aF0.4058532416820526
aF0.40449798107147217
aF0.40235060453414917
aF0.40458375215530396
aF0.4030423164367676
aF0.402720183134079
aF0.40342146158218384
aF0.4031396210193634
aF0.40085646510124207
aF0.4013653099536896
aF0.40029874444007874
aF0.4010721743106842
aF0.40411368012428284
aF0.4018520414829254
aF0.43305206298828125
aF0.4438975751399994
aF0.43782395124435425
aF0.44279733300209045
aF0.441702663898468
aF0.45090603828430176
aF0.4564274251461029
aF0.46626320481300354
aF0.4752456843852997
aF0.48273569345474243
aF0.48553651571273804
aF0.4812218248844147
aF0.49317580461502075
aF0.4937863051891327
aF0.49250757694244385
aF0.4920053780078888
aF0.4894651472568512
aF0.48924320936203003
aF0.4901081323623657
aF0.4929024577140808
aF0.4902978241443634
aF0.49154427647590637
aF0.490495890378952
aF0.4913301467895508
aF0.49211010336875916
aF0.4928334355354309
aF0.49241936206817627
aF0.4897212088108063
aF0.4907277524471283
aF0.4856613278388977
aF0.48736122250556946
aF0.48698168992996216
aF0.48910900950431824
aF0.4877648651599884
aF0.4869212806224823
aF0.48966658115386963
aF0.536861777305603
aF0.5621243715286255
aF0.5914322733879089
aF0.6131616830825806
aF0.665805995464325
aF0.6791220307350159
aF0.7216261029243469
aF0.7677055597305298
aF0.7864777445793152
aF0.8192987442016602
aF0.8471421003341675
aF0.8904517889022827
aF0.9261119961738586
aF0.9991393089294434
aF1.0368441343307495
aF1.086472988128662
aF1.1259098052978516
aF1.1667704582214355
aF1.1847034692764282
aF1.1793824434280396
aF1.178879976272583
aF1.1833162307739258
aF1.182476282119751
aF1.1800103187561035
aF1.1830641031265259
aF1.1876015663146973
aF1.1873501539230347
aF1.187407374382019
aF1.1883054971694946
aF1.1870932579040527
aF1.1832945346832275
aF1.1826554536819458
aF1.1812952756881714
aF1.1800912618637085
aF1.1795040369033813
aF1.2085601091384888
aF1.269882082939148
aF1.2972215414047241
aF1.331868290901184
aF1.3238807916641235
aF1.324027180671692
aF1.3248817920684814
aF1.322658896446228
aF1.3214688301086426
aF1.3164604902267456
aF1.3150124549865723
aF1.310874342918396
aF1.3013036251068115
aF1.3003082275390625
aF1.2949621677398682
aF1.2911232709884644
aF1.2915118932724
aF1.2901315689086914
aF1.2911772727966309
aF1.2907958030700684
aF1.2971874475479126
aF1.2953182458877563
aF1.2941869497299194
aF1.29109787940979
aF1.2884161472320557
aF1.2878201007843018
aF1.2897982597351074
aF1.293351411819458
aF1.2869703769683838
aF1.2896195650100708
aF1.2904889583587646
aF1.293669581413269
aF1.3005430698394775
aF1.3158442974090576
aF1.3038012981414795
aF1.3159079551696777
aF1.3134751319885254
aF1.3164023160934448
aF1.3189622163772583
aF1.3188368082046509
aF1.3276476860046387
aF1.3321552276611328
aF1.3316682577133179
aF1.3339877128601074
aF1.3350590467453003
aF1.3362007141113281
aF1.338897705078125
aF1.340777039527893
aF1.3393596410751343
aF1.3571665287017822
aF1.486456274986267
aF1.540522575378418
aF1.6810603141784668
aF1.7521450519561768
aF1.7669599056243896
aF1.7716811895370483
aF1.7826957702636719
aF1.7760981321334839
aF1.7808825969696045
aF1.781882405281067
aF1.7870272397994995
aF1.7914942502975464
aF1.7951825857162476
aF1.7981841564178467
aF1.7993923425674438
aF1.8005859851837158
aF1.8018240928649902
aF1.8014578819274902
aF1.8018298149108887
aF1.8022887706756592
aF1.8000996112823486
aF1.7965189218521118
aF1.795925498008728
aF1.7951809167861938
aF1.795409083366394
aF1.795028567314148
aF1.7950775623321533
aF1.7907034158706665
aF1.786786437034607
aF1.7846425771713257
aF1.7844493389129639
aF1.7815831899642944
aF1.7813584804534912
aF1.7802929878234863
aF1.7878907918930054
aF1.7844680547714233
aF1.7839909791946411
aF1.7865139245986938
aF1.788752555847168
aF1.7920303344726562
aF1.7907280921936035
aF1.793059229850769
aF1.7912070751190186
aF1.7891932725906372
aF1.7898712158203125
aF1.7900155782699585
aF1.7859853506088257
aF1.7838138341903687
aF1.7796765565872192
aF1.769835352897644
aF1.7762770652770996
aF1.772067666053772
aF1.7656652927398682
aF1.7676852941513062
aF1.7585649490356445
aF1.7149567604064941
aF1.665934681892395
aF1.6464078426361084
aF1.6238939762115479
aF1.623246192932129
aF1.6127293109893799
aF1.6020159721374512
aF1.6024905443191528
aF1.602566123008728
aF1.6025402545928955
aF1.6026592254638672
aF1.5922809839248657
aF1.5909053087234497
aF1.5967012643814087
aF1.682855486869812
aF1.7096306085586548
aF1.7110426425933838
aF1.712096095085144
aF1.716567039489746
aF1.7169513702392578
aF1.7152236700057983
aF1.7151439189910889
aF1.7146481275558472
aF1.7164688110351562
aF1.7177388668060303
aF1.7189109325408936
aF1.7186353206634521
aF1.7189620733261108
aF1.7211754322052002
aF1.722632646560669
aF1.7222883701324463
aF1.7242107391357422
aF1.7250159978866577
aF1.723164439201355
aF1.7224233150482178
aF1.7218161821365356
aF1.7236535549163818
aF1.7275738716125488
aF1.7271878719329834
aF1.731245756149292
aF1.7363874912261963
aF1.739267110824585
aF1.7411941289901733
aF1.7420841455459595
aF1.742464542388916
aF1.7412846088409424
aF1.7418274879455566
aF1.7351059913635254
aF1.7329508066177368
aF1.733408808708191
aF1.7303190231323242
aF1.7305301427841187
aF1.729190468788147
aF1.725001573562622
aF1.7213331460952759
aF1.7202212810516357
aF1.7173793315887451
aF1.7170815467834473
aF1.7174636125564575
aF1.7152601480484009
aF1.721039056777954
aF1.7190414667129517
aF1.7161552906036377
aF1.7087416648864746
aF1.7056477069854736
aF1.698096752166748
aF1.6975258588790894
aF1.6998975276947021
aF1.7035530805587769
aF1.70657217502594
aF1.7071359157562256
aF1.7092673778533936
aF1.7116343975067139
aF1.7167991399765015
aF1.7194945812225342
aF1.7236032485961914
aF1.7252589464187622
aF1.7310919761657715
aF1.7135695219039917
aF1.7189043760299683
aF1.7163145542144775
aF1.7172056436538696
aF1.7159218788146973
aF1.713709831237793
aF1.7138603925704956
aF1.7109651565551758
aF1.713062047958374
aF1.7108244895935059
aF1.706581711769104
aF1.7049221992492676
aF1.7032073736190796
aF1.6988122463226318
aF1.6985172033309937
aF1.6924086809158325
aF1.6896578073501587
aF1.6895958185195923
aF1.6840605735778809
aF1.6849260330200195
aF1.6847704648971558
aF1.6814558506011963
aF1.6815224885940552
aF1.6826988458633423
aF1.6822999715805054
aF1.681761622428894
aF1.681504726409912
aF1.681746244430542
aF1.680027723312378
aF1.6793979406356812
aF1.6768624782562256
aF1.6766034364700317
aF1.6752642393112183
aF1.678757905960083
aF1.6774404048919678
aF1.6818552017211914
aF1.66571843624115
aF1.6701653003692627
aF1.6689876317977905
aF1.6689684391021729
aF1.673625111579895
aF1.6749030351638794
aF1.6777846813201904
aF1.6790131330490112
aF1.6858338117599487
aF1.6850905418395996
aF1.6851924657821655
aF1.687218427658081
aF1.6898047924041748
aF1.6926956176757812
aF1.6942530870437622
aF1.6938588619232178
aF1.6945034265518188
aF1.6946730613708496
aF1.695732593536377
aF1.6940110921859741
aF1.6946748495101929
aF1.6914713382720947
aF1.682779312133789
aF1.6835752725601196
aF1.6772773265838623
aF1.6753966808319092
aF1.6755502223968506
aF1.6713441610336304
aF1.6681770086288452
aF1.6648269891738892
aF1.6593962907791138
aF1.6595879793167114
aF1.6572561264038086
aF1.6500927209854126
aF1.6446051597595215
aF1.6522551774978638
aF1.6458804607391357
aF1.6428295373916626
aF1.6457818746566772
aF1.6463502645492554
aF1.6417596340179443
aF1.6401277780532837
aF1.641348958015442
aF1.6406502723693848
aF1.637332558631897
aF1.6362603902816772
aF1.6333907842636108
aF1.630110740661621
aF1.6292864084243774
aF1.6306004524230957
aF1.6332952976226807
aF1.633468747138977
aF1.6375797986984253
aF1.6407488584518433
aF1.6436638832092285
aF1.6525616645812988
aF1.6533621549606323
aF1.6557985544204712
aF1.659725546836853
aF1.6602778434753418
aF1.6616164445877075
aF1.6607314348220825
aF1.6590262651443481
aF1.6589559316635132
aF1.6580190658569336
aF1.6538068056106567
aF1.6581947803497314
aF1.6536166667938232
aF1.650689959526062
aF1.6469475030899048
aF1.6429446935653687
aF1.6337451934814453
aF1.6338160037994385
aF1.6291511058807373
aF1.6274105310440063
aF1.6451719999313354
aF1.6472216844558716
aF1.6430038213729858
aF1.6437948942184448
aF1.6399422883987427
aF1.6404974460601807
aF1.6446096897125244
aF1.6876295804977417
aF1.6970195770263672
aF1.6924233436584473
aF1.7138410806655884
aF1.7569918632507324
aF1.8368698358535767
aF1.9525105953216553
aF2.0312001705169678
aF2.106297731399536
aF2.183544874191284
aF2.2956533432006836
aF2.372833013534546
aF2.4461374282836914
aF2.558647394180298
aF2.601038694381714
aF2.597001552581787
aF2.6117937564849854
aF2.657953977584839
aF2.6900312900543213
aF2.7624661922454834
aF2.807405471801758
aF2.8748111724853516
aF2.9218578338623047
aF2.9981799125671387
aF3.0762124061584473
aF3.114271402359009
aF3.120290756225586
aF3.1212525367736816
aF3.131085157394409
aF-3.1202735900878906
aF-3.1197867393493652
aF-3.1262240409851074
aF-3.1308648586273193
aF-3.128484010696411
aF-3.0961015224456787
aF-3.102156162261963
aF-3.1032392978668213
aF-3.1021299362182617
aF-3.099702835083008
aF-3.104696273803711
aF-3.096566915512085
aF-3.096468687057495
aF-3.091874837875366
aF-3.0867185592651367
aF-3.036682605743408
aF-3.005469799041748
aF-3.0007708072662354
aF-2.9998562335968018
aF-2.947324752807617
aF-2.8491687774658203
aF-2.8065531253814697
aF-2.8158135414123535
aF-2.8219172954559326
aF-2.826698064804077
aF-2.8350281715393066
aF-2.8384945392608643
aF-2.834908962249756
aF-2.828756809234619
aF-2.828198194503784
aF-2.830540895462036
aF-2.834216356277466
aF-2.8363585472106934
aF-2.8426997661590576
aF-2.8400607109069824
aF-2.8348679542541504
aF-2.832348585128784
aF-2.8288865089416504
aF-2.827453374862671
aF-2.8279473781585693
aF-2.8315086364746094
aF-2.8428359031677246
aF-2.850299119949341
aF-2.855199098587036
aF-2.85866117477417
aF-2.8536694049835205
aF-2.8523924350738525
aF-2.853029489517212
aF-2.8552050590515137
aF-2.8498446941375732
aF-2.8521528244018555
aF-2.8429462909698486
aF-2.8430628776550293
aF-2.8417670726776123
aF-2.8443515300750732
aF-2.8356192111968994
aF-2.846147060394287
aF-2.83304500579834
aF-2.8420233726501465
aF-2.838815689086914
aF-2.8358561992645264
aF-2.835573434829712
aF-2.827357530593872
aF-2.824082374572754
aF-2.8210837841033936
aF-2.8169403076171875
aF-2.816800832748413
aF-2.818542003631592
aF-2.8275861740112305
aF-2.8327488899230957
aF-2.841644525527954
aF-2.8468031883239746
aF-2.8516123294830322
aF-2.8540594577789307
aF-2.8537533283233643
aF-2.856931447982788
aF-2.8578040599823
aF-2.8564279079437256
aF-2.838376522064209
aF-2.80743670463562
aF-2.779972553253174
aF-2.782872438430786
aF-2.782301664352417
aF-2.787144422531128
aF-2.783228635787964
aF-2.745529890060425
aF-2.7244577407836914
aF-2.6951422691345215
aF-2.653740406036377
aF-2.609739065170288
aF-2.543921947479248
aF-2.4765567779541016
aF-2.338289499282837
aF-2.252918004989624
aF-2.2052528858184814
aF-2.1056666374206543
aF-1.990621566772461
aF-1.8895550966262817
aF-1.842012643814087
aF-1.7304431200027466
aF-1.6862767934799194
aF-1.5636271238327026
aF-1.4811347723007202
aF-1.468178391456604
aF-1.4303747415542603
aF-1.4322319030761719
aF-1.4315896034240723
aF-1.4296603202819824
aF-1.4352182149887085
aF-1.4353511333465576
aF-1.443499207496643
aF-1.4673948287963867
aF-1.4800302982330322
aF-1.5123870372772217
aF-1.5532203912734985
aF-1.5579862594604492
aF-1.572323203086853
aF-1.582654595375061
aF-1.602307677268982
aF-1.6072243452072144
aF-1.6723586320877075
aF-1.6789014339447021
aF-1.6746352910995483
aF-1.6750158071517944
aF-1.6731507778167725
aF-1.6722421646118164
aF-1.6727339029312134
aF-1.6676595211029053
aF-1.6694395542144775
aF-1.6711816787719727
aF-1.6698857545852661
aF-1.6714200973510742
aF-1.6698788404464722
aF-1.6729283332824707
aF-1.6727793216705322
aF-1.673822045326233
aF-1.6720681190490723
aF-1.6682875156402588
aF-1.6655664443969727
aF-1.6667767763137817
aF-1.6733447313308716
aF-1.6727129220962524
aF-1.6716299057006836
aF-1.670951008796692
aF-1.6658412218093872
aF-1.6723272800445557
aF-1.6752270460128784
aF-1.6801334619522095
aF-1.688185691833496
aF-1.694535732269287
aF-1.6946196556091309
aF-1.6967453956604004
aF-1.688811182975769
aF-1.6804124116897583
aF-1.6222690343856812
aF-1.580368161201477
aF-1.5714378356933594
aF-1.563952088356018
aF-1.5717241764068604
aF-1.5777901411056519
aF-1.5800448656082153
aF-1.5861237049102783
aF-1.5912866592407227
aF-1.5908033847808838
aF-1.5964852571487427
aF-1.598022222518921
aF-1.6008038520812988
aF-1.6041028499603271
aF-1.6026513576507568
aF-1.6031467914581299
aF-1.603119969367981
aF-1.6038786172866821
aF-1.598530650138855
aF-1.5963923931121826
aF-1.5918883085250854
aF-1.5900588035583496
aF-1.5882320404052734
aF-1.5881224870681763
aF-1.5893737077713013
aF-1.6025266647338867
aF-1.6147501468658447
aF-1.6208562850952148
aF-1.6098065376281738
aF-1.6208043098449707
aF-1.6204277276992798
aF-1.6211920976638794
aF-1.621665596961975
aF-1.6366279125213623
aF-1.6703715324401855
aF-1.6721062660217285
aF-1.678053855895996
aF-1.6809959411621094
aF-1.6828497648239136
aF-1.6843849420547485
aF-1.6834003925323486
aF-1.6847407817840576
aF-1.6843640804290771
aF-1.6841176748275757
aF-1.6935962438583374
aF-1.6975769996643066
aF-1.6969767808914185
aF-1.6838033199310303
aF-1.6784145832061768
aF-1.6715134382247925
aF-1.6712154150009155
aF-1.6670610904693604
aF-1.6687688827514648
aF-1.6722584962844849
aF-1.6715604066848755
aF-1.6843852996826172
aF-1.688188076019287
aF-1.698737621307373
aF-1.7173970937728882
aF-1.7213255167007446
aF-1.7257493734359741
aF-1.731652021408081
aF-1.7328141927719116
aF-1.7364381551742554
aF-1.7366819381713867
aF-1.7427068948745728
aF-1.7466511726379395
aF-1.7458237409591675
aF-1.7439019680023193
aF-1.7437851428985596
aF-1.7425122261047363
aF-1.7429416179656982
aF-1.748257040977478
aF-1.7532919645309448
aF-1.7612907886505127
aF-1.7754720449447632
aF-1.7783902883529663
aF-1.7870919704437256
aF-1.789435863494873
aF-1.7877362966537476
aF-1.7728264331817627
aF-1.7602531909942627
aF-1.7485020160675049
aF-1.7384462356567383
aF-1.733577013015747
aF-1.7341290712356567
aF-1.7373929023742676
aF-1.7489603757858276
aF-1.7552963495254517
aF-1.7595713138580322
aF-1.7716615200042725
aF-1.772377371788025
aF-1.7800211906433105
aF-1.7823421955108643
aF-1.7837566137313843
aF-1.7911421060562134
aF-1.7933788299560547
aF-1.7994463443756104
aF-1.801505208015442
aF-1.7988369464874268
aF-1.7956898212432861
aF-1.7935576438903809
aF-1.802831768989563
aF-1.8009320497512817
aF-1.8129748106002808
aF-1.7934376001358032
aF-1.7805441617965698
aF-1.7665385007858276
aF-1.7287191152572632
aF-1.6819738149642944
aF-1.652524471282959
aF-1.6225484609603882
aF-1.5858371257781982
aF-1.5364484786987305
aF-1.4807442426681519
aF-1.4688544273376465
aF-1.42524254322052
aF-1.385735273361206
aF-1.3084789514541626
aF-1.2557185888290405
aF-1.1867071390151978
aF-1.1369080543518066
aF-1.0611430406570435
aF-1.0117340087890625
aF-0.9572411179542542
aF-0.9036348462104797
aF-0.8234474658966064
aF-0.7750647664070129
aF-0.7026627063751221
aF-0.6889672875404358
aF-0.6938832998275757
aF-0.6941514611244202
aF-0.6971569657325745
aF-0.6979696750640869
aF-0.6933384537696838
aF-0.6835630536079407
aF-0.6749604940414429
aF-0.6713480353355408
aF-0.6696326732635498
aF-0.6744703054428101
aF-0.6712430715560913
aF-0.6640461683273315
aF-0.6583570837974548
aF-0.654667317867279
aF-0.650977611541748
aF-0.6094970107078552
aF-0.5230839252471924
aF-0.45803600549697876
aF-0.4106592535972595
aF-0.4100302755832672
aF-0.3876109719276428
aF-0.36431825160980225
aF-0.3410060703754425
aF-0.3427234888076782
aF-0.33850640058517456
aF-0.33568280935287476
aF-0.3353327810764313
aF-0.33489006757736206
aF-0.33486121892929077
aF-0.33669164776802063
aF-0.3371799886226654
aF-0.3356596529483795
aF-0.3359251618385315
aF-0.3359251618385315
aF-0.3279418647289276
aF-0.3181646764278412
aF-0.308875173330307
aF-0.28812795877456665
aF-0.2760029137134552
aF-0.24972566962242126
aF-0.23405668139457703
aF-0.2238224893808365
aF-0.237649068236351
aF-0.23725131154060364
aF-0.2515546381473541
aF-0.2528752386569977
aF-0.2561914026737213
aF-0.2599791884422302
aF-0.2513541281223297
aF-0.24483966827392578
aF-0.23461191356182098
aF-0.22835077345371246
aF-0.224768728017807
aF-0.182692289352417
aF-0.12352626025676727
aF-0.10488108545541763
aF-0.10221710801124573
aF-0.10525583475828171
aF-0.12268736958503723
aF-0.16190698742866516
aF-0.15896253287792206
aF-0.15985384583473206
aF-0.16217654943466187
aF-0.16389624774456024
aF-0.16463062167167664
aF-0.1654895842075348
aF-0.16594766080379486
aF-0.16686473786830902
aF-0.16637524962425232
aF-0.16934563219547272
aF-0.16888198256492615
aF-0.17035457491874695
aF-0.17327451705932617
aF-0.17437851428985596
aF-0.17499861121177673
aF-0.175186887383461
aF-0.17517417669296265
aF-0.17515186965465546
aF-0.15954634547233582
aF-0.15118128061294556
aF-0.1504611372947693
aF-0.14752453565597534
aF-0.15371042490005493
aF-0.1562695950269699
aF-0.1586846262216568
aF-0.16267016530036926
aF-0.16915787756443024
aF-0.17342661321163177
aF-0.17920860648155212
aF-0.18368849158287048
aF-0.19269941747188568
asS'x'
p9
(lp10
F11.242931365966797
aF11.271157264709473
aF11.270307540893555
aF11.270145416259766
aF11.243900299072266
aF11.269436836242676
aF11.271363258361816
aF11.243017196655273
aF11.218890190124512
aF11.197288513183594
aF11.176679611206055
aF11.159261703491211
aF11.140392303466797
aF11.140392303466797
aF11.133183479309082
aF11.132556915283203
aF11.133288383483887
aF11.131866455078125
aF11.137659072875977
aF11.14289665222168
aF11.143211364746094
aF11.143559455871582
aF11.151446342468262
aF11.151637077331543
aF11.150308609008789
aF11.150768280029297
aF11.156383514404297
aF11.192954063415527
aF11.23139762878418
aF11.274605751037598
aF11.318202018737793
aF11.353777885437012
aF11.399857521057129
aF11.432316780090332
aF11.451323509216309
aF11.513928413391113
aF11.552938461303711
aF11.59870719909668
aF11.631731033325195
aF11.670555114746094
aF11.736769676208496
aF11.780277252197266
aF11.824298858642578
aF11.867870330810547
aF11.931351661682129
aF11.982613563537598
aF12.049571990966797
aF12.0984468460083
aF12.141901969909668
aF12.207845687866211
aF12.254467010498047
aF12.299788475036621
aF12.36767578125
aF12.409716606140137
aF12.470617294311523
aF12.51795768737793
aF12.564223289489746
aF12.605737686157227
aF12.64790153503418
aF12.712575912475586
aF12.755414009094238
aF12.796165466308594
aF12.835310935974121
aF12.876721382141113
aF12.91931438446045
aF12.974691390991211
aF13.014095306396484
aF13.050329208374023
aF13.109243392944336
aF13.146188735961914
aF13.197376251220703
aF13.235163688659668
aF13.280989646911621
aF13.334900856018066
aF13.390668869018555
aF13.478114128112793
aF13.558208465576172
aF13.584333419799805
aF13.66547966003418
aF13.722207069396973
aF13.778919219970703
aF13.86543083190918
aF13.920879364013672
aF13.97683334350586
aF14.033214569091797
aF14.089064598083496
aF14.175362586975098
aF14.261798858642578
aF14.31886100769043
aF14.377525329589844
aF14.466838836669922
aF14.517107963562012
aF14.550494194030762
aF14.550867080688477
aF14.54539680480957
aF14.544905662536621
aF14.5484037399292
aF14.550642967224121
aF14.551288604736328
aF14.5551176071167
aF14.568231582641602
aF14.604859352111816
aF14.634886741638184
aF14.661674499511719
aF14.685990333557129
aF14.713927268981934
aF14.767799377441406
aF14.80508804321289
aF14.858682632446289
aF14.909895896911621
aF14.945635795593262
aF14.980627059936523
aF15.017058372497559
aF15.075273513793945
aF15.135215759277344
aF15.183246612548828
aF15.240825653076172
aF15.265381813049316
aF15.337054252624512
aF15.387687683105469
aF15.437915802001953
aF15.52012825012207
aF15.571638107299805
aF15.649993896484375
aF15.676939964294434
aF15.757987022399902
aF15.841126441955566
aF15.898664474487305
aF15.981871604919434
aF16.010345458984375
aF16.091522216796875
aF16.147266387939453
aF16.199256896972656
aF16.284427642822266
aF16.339008331298828
aF16.42059326171875
aF16.47834587097168
aF16.560874938964844
aF16.61902618408203
aF16.671667098999023
aF16.751195907592773
aF16.805042266845703
aF16.859149932861328
aF16.91271209716797
aF16.990869522094727
aF17.04423713684082
aF17.097347259521484
aF17.1539306640625
aF17.209754943847656
aF17.263975143432617
aF17.318044662475586
aF17.372587203979492
aF17.419965744018555
aF17.496870040893555
aF17.57143211364746
aF17.61776351928711
aF17.684965133666992
aF17.730960845947266
aF17.77738380432129
aF17.847389221191406
aF17.892993927001953
aF17.96200180053711
aF18.006601333618164
aF18.053007125854492
aF18.095121383666992
aF18.139802932739258
aF18.207412719726562
aF18.252634048461914
aF18.319293975830078
aF18.36431884765625
aF18.407560348510742
aF18.4503173828125
aF18.492694854736328
aF18.55711555480957
aF18.598432540893555
aF18.66032600402832
aF18.722158432006836
aF18.763944625854492
aF18.82476806640625
aF18.865459442138672
aF18.9066219329834
aF18.947629928588867
aF19.01219367980957
aF19.05315399169922
aF19.094701766967773
aF19.154460906982422
aF19.198888778686523
aF19.242002487182617
aF19.300609588623047
aF19.34145164489746
aF19.4383602142334
aF19.466567993164062
aF19.52263069152832
aF19.578908920288086
aF19.634843826293945
aF19.690845489501953
aF19.7451229095459
aF19.828187942504883
aF19.915298461914062
aF20.005977630615234
aF20.07086753845215
aF20.141307830810547
aF20.207313537597656
aF20.309885025024414
aF20.390592575073242
aF20.482986450195312
aF20.551572799682617
aF20.611705780029297
aF20.71087074279785
aF20.778465270996094
aF20.840639114379883
aF20.93468475341797
aF20.995168685913086
aF21.062782287597656
aF21.122325897216797
aF21.217378616333008
aF21.251842498779297
aF21.343669891357422
aF21.433027267456055
aF21.476425170898438
aF21.53045082092285
aF21.585966110229492
aF21.668254852294922
aF21.726211547851562
aF21.803956985473633
aF21.855138778686523
aF21.9049129486084
aF21.9538631439209
aF22.00212860107422
aF22.063312530517578
aF22.093172073364258
aF22.1001033782959
aF22.112537384033203
aF22.12902069091797
aF22.157577514648438
aF22.187118530273438
aF22.204153060913086
aF22.220739364624023
aF22.239063262939453
aF22.2531681060791
aF22.2735652923584
aF22.290834426879883
aF22.314529418945312
aF22.32904052734375
aF22.343950271606445
aF22.369176864624023
aF22.3799991607666
aF22.405296325683594
aF22.4267520904541
aF22.44219398498535
aF22.47888946533203
aF22.492128372192383
aF22.50722885131836
aF22.523662567138672
aF22.540735244750977
aF22.552902221679688
aF22.568038940429688
aF22.577184677124023
aF22.58041763305664
aF22.59099578857422
aF22.60672378540039
aF22.614063262939453
aF22.626317977905273
aF22.655099868774414
aF22.672897338867188
aF22.684141159057617
aF22.700422286987305
aF22.712173461914062
aF22.726484298706055
aF22.736770629882812
aF22.74734878540039
aF22.757600784301758
aF22.772687911987305
aF22.784151077270508
aF22.791397094726562
aF22.812299728393555
aF22.826162338256836
aF22.844924926757812
aF22.851112365722656
aF22.855520248413086
aF22.872024536132812
aF22.867700576782227
aF22.886890411376953
aF22.899377822875977
aF22.91213607788086
aF22.92877197265625
aF22.938800811767578
aF22.952585220336914
aF22.969745635986328
aF22.980249404907227
aF22.99362564086914
aF23.01015853881836
aF23.018447875976562
aF23.034204483032227
aF23.045866012573242
aF23.059873580932617
aF23.100820541381836
aF23.103435516357422
aF23.14077377319336
aF23.14659881591797
aF23.147903442382812
aF23.145524978637695
aF23.154592514038086
aF23.15532684326172
aF23.152585983276367
aF23.147743225097656
aF23.13421058654785
aF23.126569747924805
aF23.118837356567383
aF23.113994598388672
aF23.106813430786133
aF23.099281311035156
aF23.08367919921875
aF23.069969177246094
aF23.05162811279297
aF23.04167938232422
aF23.024560928344727
aF23.006624221801758
aF22.995351791381836
aF22.98134994506836
aF22.96484375
aF22.950044631958008
aF22.932170867919922
aF22.912118911743164
aF22.89531898498535
aF22.879079818725586
aF22.86691665649414
aF22.849987030029297
aF22.8309326171875
aF22.816511154174805
aF22.79352569580078
aF22.789766311645508
aF22.772871017456055
aF22.764665603637695
aF22.743324279785156
aF22.711841583251953
aF22.697500228881836
aF22.682056427001953
aF22.661657333374023
aF22.636066436767578
aF22.620616912841797
aF22.599206924438477
aF22.589094161987305
aF22.567371368408203
aF22.550207138061523
aF22.544025421142578
aF22.538124084472656
aF22.547588348388672
aF22.56462860107422
aF22.57068634033203
aF22.575361251831055
aF22.596620559692383
aF22.56011390686035
aF22.552186965942383
aF22.54576873779297
aF22.540088653564453
aF22.54373550415039
aF22.55059814453125
aF22.55264663696289
aF22.556251525878906
aF22.560110092163086
aF22.564844131469727
aF22.574140548706055
aF22.577219009399414
aF22.584959030151367
aF22.590158462524414
aF22.599699020385742
aF22.602458953857422
aF22.60013198852539
aF22.599828720092773
aF22.596837997436523
aF22.591175079345703
aF22.590085983276367
aF22.58489418029785
aF22.5806884765625
aF22.575387954711914
aF22.56991195678711
aF22.561094284057617
aF22.556821823120117
aF22.5487060546875
aF22.534055709838867
aF22.531394958496094
aF22.519975662231445
aF22.51424789428711
aF22.508472442626953
aF22.512434005737305
aF22.510740280151367
aF22.5112247467041
aF22.52121353149414
aF22.523296356201172
aF22.52850341796875
aF22.528030395507812
aF22.529373168945312
aF22.534751892089844
aF22.533109664916992
aF22.532041549682617
aF22.52800750732422
aF22.51947784423828
aF22.519365310668945
aF22.504968643188477
aF22.49388885498047
aF22.48056411743164
aF22.45026206970215
aF22.444795608520508
aF22.423175811767578
aF22.41073989868164
aF22.398412704467773
aF22.369192123413086
aF22.357524871826172
aF22.337600708007812
aF22.322973251342773
aF22.295421600341797
aF22.269853591918945
aF22.25763511657715
aF22.253868103027344
aF22.250333786010742
aF22.258760452270508
aF22.259784698486328
aF22.258464813232422
aF22.265649795532227
aF22.261098861694336
aF22.267358779907227
aF22.273263931274414
aF22.276416778564453
aF22.294828414916992
aF22.308141708374023
aF22.325998306274414
aF22.326326370239258
aF22.319046020507812
aF22.310344696044922
aF22.307260513305664
aF22.2977294921875
aF22.287519454956055
aF22.278942108154297
aF22.271774291992188
aF22.25682830810547
aF22.251001358032227
aF22.245107650756836
aF22.23311996459961
aF22.21795654296875
aF22.20840835571289
aF22.196067810058594
aF22.18219757080078
aF22.176464080810547
aF22.16692543029785
aF22.157934188842773
aF22.15231704711914
aF22.146251678466797
aF22.141651153564453
aF22.130023956298828
aF22.12311363220215
aF22.116016387939453
aF22.109933853149414
aF22.102550506591797
aF22.094533920288086
aF22.086854934692383
aF22.079387664794922
aF22.0720272064209
aF22.066659927368164
aF22.056852340698242
aF22.052640914916992
aF22.051084518432617
aF22.040624618530273
aF22.0369873046875
aF22.03185272216797
aF22.0419864654541
aF22.039321899414062
aF22.041425704956055
aF22.036827087402344
aF22.035470962524414
aF22.024057388305664
aF22.021251678466797
aF22.016246795654297
aF22.007957458496094
aF22.003520965576172
aF22.0024471282959
aF22.003822326660156
aF22.004844665527344
aF22.008071899414062
aF22.0063419342041
aF22.001745223999023
aF22.001916885375977
aF21.998647689819336
aF21.990495681762695
aF21.981950759887695
aF21.98094940185547
aF21.974411010742188
aF21.971385955810547
aF21.968236923217773
aF21.966388702392578
aF21.944595336914062
aF21.940095901489258
aF21.914779663085938
aF21.896886825561523
aF21.885784149169922
aF21.872852325439453
aF21.864580154418945
aF21.859691619873047
aF21.8586368560791
aF21.8531436920166
aF21.848670959472656
aF21.834917068481445
aF21.833724975585938
aF21.819517135620117
aF21.811983108520508
aF21.807571411132812
aF21.80267333984375
aF21.796289443969727
aF21.794565200805664
aF21.783985137939453
aF21.780410766601562
aF21.778982162475586
aF21.772878646850586
aF21.77121353149414
aF21.758567810058594
aF21.76061248779297
aF21.737443923950195
aF21.709976196289062
aF21.70403480529785
aF21.68121910095215
aF21.675819396972656
aF21.659738540649414
aF21.6424560546875
aF21.62359046936035
aF21.606889724731445
aF21.587182998657227
aF21.570758819580078
aF21.56415557861328
aF21.551891326904297
aF21.548656463623047
aF21.550378799438477
aF21.53447723388672
aF21.523719787597656
aF21.509258270263672
aF21.49603271484375
aF21.48387908935547
aF21.482328414916992
aF21.47594451904297
aF21.47463607788086
aF21.470420837402344
aF21.456741333007812
aF21.453323364257812
aF21.4412841796875
aF21.433591842651367
aF21.421812057495117
aF21.41357421875
aF21.40328598022461
aF21.399620056152344
aF21.39214515686035
aF21.386693954467773
aF21.37786865234375
aF21.376026153564453
aF21.363096237182617
aF21.34921646118164
aF21.3679256439209
aF21.33673667907715
aF21.350645065307617
aF21.307598114013672
aF21.275440216064453
aF21.237943649291992
aF21.176952362060547
aF21.090951919555664
aF21.02788543701172
aF20.966880798339844
aF20.883325576782227
aF20.823007583618164
aF20.733713150024414
aF20.67147445678711
aF20.57337188720703
aF20.497814178466797
aF20.393064498901367
aF20.288593292236328
aF20.218748092651367
aF20.155288696289062
aF20.089815139770508
aF19.993602752685547
aF19.900314331054688
aF19.849136352539062
aF19.79545021057129
aF19.713037490844727
aF19.649883270263672
aF19.553159713745117
aF19.497455596923828
aF19.419940948486328
aF19.327028274536133
aF19.272201538085938
aF19.219501495361328
aF19.13553810119629
aF19.03601837158203
aF18.971050262451172
aF18.876148223876953
aF18.781686782836914
aF18.722003936767578
aF18.673276901245117
aF18.61882209777832
aF18.532001495361328
aF18.445232391357422
aF18.38797950744629
aF18.306947708129883
aF18.222530364990234
aF18.157907485961914
aF18.059368133544922
aF17.961885452270508
aF17.90069007873535
aF17.83745574951172
aF17.775230407714844
aF17.677318572998047
aF17.570016860961914
aF17.498048782348633
aF17.421390533447266
aF17.347023010253906
aF17.20357894897461
aF17.131366729736328
aF17.059104919433594
aF16.948705673217773
aF16.844165802001953
aF16.77244758605957
aF16.668760299682617
aF16.560211181640625
aF16.493011474609375
aF16.405689239501953
aF16.308713912963867
aF16.26844024658203
aF16.173215866088867
aF16.0803165435791
aF16.02816390991211
aF15.955658912658691
aF15.861618995666504
aF15.792306900024414
aF15.6840238571167
aF15.60310173034668
aF15.490483283996582
aF15.373456954956055
aF15.337790489196777
aF15.18789291381836
aF15.113685607910156
aF15.038871765136719
aF14.927997589111328
aF14.853290557861328
aF14.74596881866455
aF14.638713836669922
aF14.569748878479004
aF14.462679862976074
aF14.356023788452148
aF14.284868240356445
aF14.181658744812012
aF14.110507011413574
aF14.036888122558594
aF13.893501281738281
aF13.821357727050781
aF13.75174331665039
aF13.64200210571289
aF13.572076797485352
aF13.46679973602295
aF13.395678520202637
aF13.322649955749512
aF13.216036796569824
aF13.11074447631836
aF13.04372787475586
aF12.934126853942871
aF12.867610931396484
aF12.759801864624023
aF12.67796516418457
aF12.609649658203125
aF12.499763488769531
aF12.431954383850098
aF12.335597038269043
aF12.261890411376953
aF12.132777214050293
aF12.082219123840332
aF12.007193565368652
aF11.908090591430664
aF11.84903335571289
aF11.764845848083496
aF11.709708213806152
aF11.682852745056152
aF11.640795707702637
aF11.608076095581055
aF11.617435455322266
aF11.600937843322754
aF11.615294456481934
aF11.645291328430176
aF11.659209251403809
aF11.676888465881348
aF11.687047958374023
aF11.702127456665039
aF11.717550277709961
aF11.759496688842773
aF11.7734956741333
aF11.791146278381348
aF11.822546005249023
aF11.822142601013184
aF11.838723182678223
aF11.851380348205566
aF11.856267929077148
aF11.856904029846191
aF11.850805282592773
aF11.853736877441406
aF11.835033416748047
aF11.824145317077637
aF11.8086576461792
aF11.796481132507324
aF11.787361145019531
aF11.767905235290527
aF11.756999969482422
aF11.745619773864746
aF11.74152946472168
aF11.734042167663574
aF11.724029541015625
aF11.717246055603027
aF11.705194473266602
aF11.694731712341309
aF11.687281608581543
aF11.654010772705078
aF11.644989013671875
aF11.626516342163086
aF11.604859352111816
aF11.597258567810059
aF11.569273948669434
aF11.56294059753418
aF11.563224792480469
aF11.537524223327637
aF11.523460388183594
aF11.540515899658203
aF11.537449836730957
aF11.523364067077637
aF11.512962341308594
aF11.495645523071289
aF11.475854873657227
aF11.45587158203125
aF11.440347671508789
aF11.428357124328613
aF11.429615020751953
aF11.432158470153809
aF11.43170166015625
aF11.43233871459961
aF11.434944152832031
aF11.44677448272705
aF11.461376190185547
aF11.461103439331055
aF11.47082805633545
aF11.471500396728516
aF11.470296859741211
aF11.463191032409668
aF11.4617919921875
aF11.459585189819336
aF11.456193923950195
aF11.448524475097656
aF11.439597129821777
aF11.432228088378906
aF11.427245140075684
aF11.418989181518555
aF11.413873672485352
aF11.409496307373047
aF11.408537864685059
aF11.415604591369629
aF11.40432357788086
aF11.402710914611816
aF11.396814346313477
aF11.384247779846191
aF11.383018493652344
aF11.37710189819336
aF11.374917030334473
aF11.368927001953125
aF11.369105339050293
aF11.358641624450684
aF11.352381706237793
aF11.344304084777832
aF11.338476181030273
aF11.319231033325195
aF11.31210708618164
aF11.301562309265137
aF11.29129409790039
aF11.278229713439941
aF11.264976501464844
aF11.257865905761719
aF11.251199722290039
aF11.234394073486328
aF11.222857475280762
aF11.215720176696777
aF11.204562187194824
aF11.207045555114746
aF11.199634552001953
aF11.206168174743652
aF11.197911262512207
aF11.207489967346191
aF11.206705093383789
aF11.198128700256348
aF11.187360763549805
aF11.179339408874512
aF11.171855926513672
aF11.163509368896484
aF11.149530410766602
aF11.139760971069336
aF11.127093315124512
aF11.10786247253418
aF11.094566345214844
aF11.077714920043945
aF11.073171615600586
aF11.061470985412598
aF11.04611587524414
aF11.0391206741333
aF11.019756317138672
aF11.006549835205078
aF10.981550216674805
aF10.957087516784668
aF10.944598197937012
aF10.915619850158691
aF10.89830207824707
aF10.888140678405762
aF10.880064964294434
aF10.879393577575684
aF10.880414009094238
aF10.881390571594238
aF10.874856948852539
aF10.885950088500977
aF10.874185562133789
aF10.876068115234375
aF10.872791290283203
aF10.86510944366455
aF10.855548858642578
aF10.848645210266113
aF10.867976188659668
aF10.867696762084961
aF10.856210708618164
aF10.840423583984375
aF10.834389686584473
aF10.813457489013672
aF10.794605255126953
aF10.779433250427246
aF10.758159637451172
aF10.736835479736328
aF10.709372520446777
aF10.691130638122559
aF10.640536308288574
aF10.60336685180664
aF10.555251121520996
aF10.507514953613281
aF10.481273651123047
aF10.458930969238281
aF10.439384460449219
aF10.434322357177734
aF10.398024559020996
aF10.38762092590332
aF10.399560928344727
aF10.400223731994629
aF10.410051345825195
aF10.427901268005371
aF10.462437629699707
aF10.490482330322266
aF10.539776802062988
aF10.573434829711914
aF10.624737739562988
aF10.655056953430176
aF10.677672386169434
aF10.689162254333496
aF10.703622817993164
aF10.713839530944824
aF10.73785400390625
aF10.74946403503418
aF10.764918327331543
aF10.785494804382324
aF10.788670539855957
aF10.796464920043945
aF10.805941581726074
aF10.813611030578613
aF10.821303367614746
aF10.833648681640625
aF10.840601921081543
aF10.848753929138184
aF10.864134788513184
aF10.869053840637207
aF10.876062393188477
aF10.893206596374512
aF10.90383529663086
aF10.921690940856934
aF10.933385848999023
aF10.95009994506836
aF10.977455139160156
aF10.996275901794434
aF11.021071434020996
aF11.027739524841309
aF11.029776573181152
aF11.0277738571167
aF11.026799201965332
aF11.025321006774902
aF11.025130271911621
aF11.024937629699707
aF11.024932861328125
aF11.024809837341309
aF11.024611473083496
aF11.023737907409668
aF11.023673057556152
aF11.023673057556152
aF11.02401351928711
aF11.024643898010254
aF11.024984359741211
aF11.019309043884277
aF11.020737648010254
aF11.021442413330078
aF11.02124309539795
aF11.021509170532227
aF11.023577690124512
aF11.023555755615234
aF11.026467323303223
aF11.027817726135254
aF11.032007217407227
aF11.036441802978516
aF11.0375394821167
aF11.039050102233887
aF11.04066276550293
aF11.041325569152832
aF11.043152809143066
aF11.044900894165039
aF11.047480583190918
aF11.040169715881348
aF11.038241386413574
aF11.026646614074707
aF11.02678108215332
aF11.02629280090332
aF11.026289939880371
aF11.017518043518066
aF11.017983436584473
aF11.0178804397583
aF11.017797470092773
aF11.01814079284668
aF11.018072128295898
aF11.018054962158203
aF11.018078804016113
aF11.018889427185059
aF11.018937110900879
aF11.019131660461426
aF11.020273208618164
aF11.020210266113281
aF11.019891738891602
aF11.01988410949707
aF11.019883155822754
aF11.01988410949707
aF11.010340690612793
aF11.009282112121582
aF11.010334014892578
aF11.005331039428711
aF11.009169578552246
aF11.0095853805542
aF11.00964641571045
aF11.0115385055542
aF11.00924301147461
aF11.00735855102539
aF11.003684043884277
aF11.003249168395996
aF10.998514175415039
asba(i__main__
Pose
p11
(dp12
g3
(lp13
F30.015356063842773
aF30.016963958740234
aF30.017423629760742
aF30.01886558532715
aF30.019153594970703
aF30.020694732666016
aF30.018362045288086
aF30.01980209350586
aF30.018383026123047
aF30.007917404174805
aF30.008405685424805
aF30.004783630371094
aF30.00555419921875
aF30.003700256347656
aF30.001995086669922
aF30.000228881835938
aF30.001483917236328
aF30.002729415893555
aF30.0022029876709
aF30.00069808959961
aF30.00082778930664
aF30.002456665039062
aF30.003942489624023
aF30.00311279296875
aF30.002315521240234
aF30.001623153686523
aF30.00181007385254
aF30.00121307373047
aF29.997268676757812
aF29.992326736450195
aF29.98699378967285
aF29.98216438293457
aF29.979372024536133
aF29.974960327148438
aF29.971364974975586
aF29.967805862426758
aF29.957622528076172
aF29.95575523376465
aF29.94654655456543
aF29.94124412536621
aF29.936431884765625
aF29.932872772216797
aF29.926860809326172
aF29.925371170043945
aF29.916301727294922
aF29.911836624145508
aF29.90570068359375
aF29.901166915893555
aF29.896635055541992
aF29.89251708984375
aF29.887733459472656
aF29.88071060180664
aF29.875015258789062
aF29.871122360229492
aF29.867393493652344
aF29.85980796813965
aF29.856216430664062
aF29.848365783691406
aF29.844219207763672
aF29.838674545288086
aF29.830856323242188
aF29.825275421142578
aF29.82337188720703
aF29.814556121826172
aF29.807239532470703
aF29.80410385131836
aF29.7974796295166
aF29.791067123413086
aF29.78506088256836
aF29.77653694152832
aF29.773649215698242
aF29.76469612121582
aF29.761003494262695
aF29.756711959838867
aF29.748916625976562
aF29.744821548461914
aF29.73496437072754
aF29.72728729248047
aF29.7166690826416
aF29.712474822998047
aF29.704679489135742
aF29.696924209594727
aF29.688867568969727
aF29.680450439453125
aF29.672990798950195
aF29.663677215576172
aF29.661746978759766
aF29.651668548583984
aF29.6411190032959
aF29.63204574584961
aF29.623140335083008
aF29.608444213867188
aF29.603565216064453
aF29.60135269165039
aF29.601768493652344
aF29.607574462890625
aF29.614099502563477
aF29.620330810546875
aF29.62657928466797
aF29.632783889770508
aF29.63616371154785
aF29.641347885131836
aF29.640981674194336
aF29.63589859008789
aF29.629653930664062
aF29.625442504882812
aF29.617996215820312
aF29.6137752532959
aF29.60422706604004
aF29.598146438598633
aF29.598182678222656
aF29.595561981201172
aF29.597213745117188
aF29.59914779663086
aF29.602596282958984
aF29.603368759155273
aF29.60035514831543
aF29.598909378051758
aF29.60938262939453
aF29.607500076293945
aF29.606176376342773
aF29.604265213012695
aF29.60400390625
aF29.603878021240234
aF29.604808807373047
aF29.602643966674805
aF29.599802017211914
aF29.594833374023438
aF29.591157913208008
aF29.58665657043457
aF29.579639434814453
aF29.574281692504883
aF29.56471824645996
aF29.555742263793945
aF29.545452117919922
aF29.532625198364258
aF29.525718688964844
aF29.50434684753418
aF29.500307083129883
aF29.485652923583984
aF29.47719955444336
aF29.46830940246582
aF29.457454681396484
aF29.4522762298584
aF29.453060150146484
aF29.456329345703125
aF29.466407775878906
aF29.470701217651367
aF29.47771644592285
aF29.48417854309082
aF29.491004943847656
aF29.496702194213867
aF29.503063201904297
aF29.514503479003906
aF29.525238037109375
aF29.54848861694336
aF29.541852951049805
aF29.598785400390625
aF29.585966110229492
aF29.592069625854492
aF29.606449127197266
aF29.60232162475586
aF29.60638427734375
aF29.632015228271484
aF29.617090225219727
aF29.60866355895996
aF29.60390281677246
aF29.598663330078125
aF29.601707458496094
aF29.590295791625977
aF29.587568283081055
aF29.578832626342773
aF29.567895889282227
aF29.54829216003418
aF29.528850555419922
aF29.50994873046875
aF29.493934631347656
aF29.485288619995117
aF29.477214813232422
aF29.467864990234375
aF29.459468841552734
aF29.445249557495117
aF29.43413543701172
aF29.422327041625977
aF29.41655158996582
aF29.403564453125
aF29.391075134277344
aF29.383792877197266
aF29.374221801757812
aF29.366594314575195
aF29.35698699951172
aF29.349082946777344
aF29.340721130371094
aF29.345548629760742
aF29.348695755004883
aF29.352550506591797
aF29.35449981689453
aF29.358806610107422
aF29.36466407775879
aF29.367965698242188
aF29.371355056762695
aF29.375505447387695
aF29.372346878051758
aF29.37742042541504
aF29.383054733276367
aF29.392475128173828
aF29.392398834228516
aF29.401498794555664
aF29.407562255859375
aF29.411724090576172
aF29.418481826782227
aF29.42182159423828
aF29.431838989257812
aF29.43759536743164
aF29.441495895385742
aF29.45269203186035
aF29.456796646118164
aF29.466594696044922
aF29.48577308654785
aF29.506511688232422
aF29.533143997192383
aF29.556026458740234
aF29.581266403198242
aF29.603410720825195
aF29.62908172607422
aF29.675195693969727
aF29.70926284790039
aF29.755651473999023
aF29.77164649963379
aF29.827224731445312
aF29.849763870239258
aF29.87154197692871
aF29.866697311401367
aF29.867849349975586
aF29.864662170410156
aF29.869915008544922
aF29.88079261779785
aF29.887462615966797
aF29.891399383544922
aF29.893917083740234
aF29.905197143554688
aF29.910259246826172
aF29.919010162353516
aF29.92462921142578
aF29.93350601196289
aF29.939516067504883
aF29.945297241210938
aF29.948230743408203
aF29.958263397216797
aF29.970787048339844
aF29.980817794799805
aF29.990243911743164
aF30.015926361083984
aF30.033885955810547
aF30.042705535888672
aF30.068754196166992
aF30.08666229248047
aF30.120590209960938
aF30.148229598999023
aF30.1799259185791
aF30.237043380737305
aF30.29444694519043
aF30.350526809692383
aF30.387298583984375
aF30.428314208984375
aF30.470426559448242
aF30.514400482177734
aF30.58011245727539
aF30.622201919555664
aF30.689096450805664
aF30.73168182373047
aF30.775911331176758
aF30.818784713745117
aF30.883028030395508
aF30.948238372802734
aF30.991167068481445
aF31.057174682617188
aF31.100168228149414
aF31.165889739990234
aF31.18747329711914
aF31.25322914123535
aF31.324581146240234
aF31.39547348022461
aF31.416015625
aF31.50015640258789
aF31.542421340942383
aF31.584550857543945
aF31.649959564208984
aF31.69325065612793
aF31.71509552001953
aF31.775075912475586
aF31.839069366455078
aF31.88574981689453
aF31.95390510559082
aF32.0382080078125
aF32.08830261230469
aF32.15169906616211
aF32.18994140625
aF32.21202087402344
aF32.257022857666016
aF32.32686996459961
aF32.39585494995117
aF32.44243621826172
aF32.485496520996094
aF32.52448654174805
aF32.56550598144531
aF32.6785774230957
aF32.737178802490234
aF32.81492614746094
aF32.86286926269531
aF32.9113655090332
aF32.984737396240234
aF33.08231735229492
aF33.13102340698242
aF33.18332290649414
aF33.291873931884766
aF33.34915542602539
aF33.403160095214844
aF33.522865295410156
aF33.5859260559082
aF33.61612319946289
aF33.7709846496582
aF33.80257797241211
aF33.92388916015625
aF34.012630462646484
aF34.066158294677734
aF34.138423919677734
aF34.191226959228516
aF34.223411560058594
aF34.344112396240234
aF34.40248489379883
aF34.49304962158203
aF34.55148696899414
aF34.63725662231445
aF34.72709274291992
aF34.78715896606445
aF34.89377975463867
aF34.951744079589844
aF35.00835418701172
aF35.09867477416992
aF35.1580696105957
aF35.21870422363281
aF35.303749084472656
aF35.35662841796875
aF35.435752868652344
aF35.49569320678711
aF35.52497482299805
aF35.54140090942383
aF35.54556655883789
aF35.566585540771484
aF35.57105255126953
aF35.56416702270508
aF35.5633659362793
aF35.56416702270508
aF35.56753921508789
aF35.57242965698242
aF35.57117462158203
aF35.58454132080078
aF35.60546112060547
aF35.618377685546875
aF35.662803649902344
aF35.672760009765625
aF35.70558547973633
aF35.72901153564453
aF35.77109909057617
aF35.807640075683594
aF35.86608123779297
aF35.930145263671875
aF35.96464157104492
aF35.99941635131836
aF36.05921173095703
aF36.12828063964844
aF36.19181823730469
aF36.215301513671875
aF36.257957458496094
aF36.347389221191406
aF36.39082336425781
aF36.49632263183594
aF36.55384826660156
aF36.63663101196289
aF36.71714782714844
aF36.769126892089844
aF36.82560348510742
aF36.875762939453125
aF36.94203567504883
aF37.05402755737305
aF37.12947463989258
aF37.171241760253906
aF37.318641662597656
aF37.42832565307617
aF37.502586364746094
aF37.54380416870117
aF37.653629302978516
aF37.765960693359375
aF37.84162139892578
aF37.95013427734375
aF38.09815216064453
aF38.13497543334961
aF38.286346435546875
aF38.40029525756836
aF38.472957611083984
aF38.54585647583008
aF38.6181526184082
aF38.729736328125
aF38.80260467529297
aF38.917728424072266
aF39.03447723388672
aF39.11448287963867
aF39.18889236450195
aF39.299869537353516
aF39.37071228027344
aF39.4401969909668
aF39.51344299316406
aF39.65939712524414
aF39.76728057861328
aF39.80160140991211
aF39.83805465698242
aF39.9858283996582
aF40.06480407714844
aF40.212127685546875
aF40.281673431396484
aF40.358741760253906
aF40.472782135009766
aF40.59855651855469
aF40.66748046875
aF40.783058166503906
aF40.861289978027344
aF40.93754959106445
aF41.02717971801758
aF41.07279586791992
aF41.12018585205078
aF41.173667907714844
aF41.22954559326172
aF41.31199645996094
aF41.39299774169922
aF41.4771842956543
aF41.551883697509766
aF41.626792907714844
aF41.67401885986328
aF41.742958068847656
aF41.81230545043945
aF41.8320198059082
aF41.87514877319336
aF41.94633483886719
aF42.01838684082031
aF42.064151763916016
aF42.11414337158203
aF42.161590576171875
aF42.21559524536133
aF42.2968635559082
aF42.34995651245117
aF42.431304931640625
aF42.48951721191406
aF42.5490837097168
aF42.608253479003906
aF42.69887924194336
aF42.76371765136719
aF42.828250885009766
aF42.92302703857422
aF42.9831657409668
aF43.044437408447266
aF43.11958312988281
aF43.18815994262695
aF43.230628967285156
aF43.276241302490234
aF43.33842086791992
aF43.37911605834961
aF43.45598220825195
aF43.474117279052734
aF43.51434326171875
aF43.55093765258789
aF43.60319519042969
aF43.61970138549805
aF43.67454147338867
aF43.71228790283203
aF43.783485412597656
aF43.855384826660156
aF43.90336990356445
aF43.954524993896484
aF44.005367279052734
aF44.05997085571289
aF44.11248779296875
aF44.186607360839844
aF44.21097183227539
aF44.25949478149414
aF44.35945129394531
aF44.405513763427734
aF44.47761917114258
aF44.54922866821289
aF44.60002136230469
aF44.647499084472656
aF44.69915771484375
aF44.785621643066406
aF44.87649154663086
aF44.93374252319336
aF44.994972229003906
aF45.11098861694336
aF45.1688232421875
aF45.256038665771484
aF45.34250259399414
aF45.40348434448242
aF45.46178436279297
aF45.57831573486328
aF45.69835662841797
aF45.72715759277344
aF45.823604583740234
aF45.91323471069336
aF45.975460052490234
aF46.006629943847656
aF46.07168197631836
aF46.16172409057617
aF46.28485870361328
aF46.31800842285156
aF46.44561004638672
aF46.51164245605469
aF46.6088981628418
aF46.679927825927734
aF46.776405334472656
aF46.869564056396484
aF46.962135314941406
aF47.02273178100586
aF47.08491897583008
aF47.18708038330078
aF47.315223693847656
aF47.38340377807617
aF47.47334289550781
aF47.572837829589844
aF47.6061897277832
aF47.70349884033203
aF47.765960693359375
aF47.86045837402344
aF47.92655944824219
aF47.98973846435547
aF48.12446594238281
aF48.15292739868164
aF48.29096984863281
aF48.3901252746582
aF48.48548889160156
aF48.55270767211914
aF48.587886810302734
aF48.68381881713867
aF48.78485107421875
aF48.86189651489258
aF48.927345275878906
aF48.98900604248047
aF49.08409118652344
aF49.1793212890625
aF49.20962905883789
aF49.27781295776367
aF49.39035415649414
aF49.489051818847656
aF49.576622009277344
aF49.631011962890625
aF49.69327163696289
aF49.790836334228516
aF49.840911865234375
aF49.873600006103516
aF49.969398498535156
aF49.94028854370117
aF49.9422492980957
aF49.977264404296875
aF50.03800582885742
aF50.05935287475586
aF50.108726501464844
aF50.13280487060547
aF50.15271759033203
aF50.185821533203125
aF50.22898483276367
aF50.26683044433594
aF50.29463195800781
aF50.31895065307617
aF50.349281311035156
aF50.38616180419922
aF50.39658737182617
aF50.40987014770508
aF50.4195556640625
aF50.425148010253906
aF50.426170349121094
aF50.42473602294922
aF50.417083740234375
aF50.40849685668945
aF50.40384292602539
aF50.40290069580078
aF50.39716339111328
aF50.39196014404297
aF50.38677215576172
aF50.37943649291992
aF50.37893295288086
aF50.37529373168945
aF50.372196197509766
aF50.3657341003418
aF50.36063003540039
aF50.333335876464844
aF50.32472229003906
aF50.29363250732422
aF50.28464126586914
aF50.26171112060547
aF50.23389434814453
aF50.20980453491211
aF50.161617279052734
aF50.14509963989258
aF50.10140609741211
aF50.066768646240234
aF50.013790130615234
aF49.96462631225586
aF49.910316467285156
aF49.87369155883789
aF49.81665802001953
aF49.75786590576172
aF49.70131301879883
aF49.68288803100586
aF49.64085006713867
aF49.603519439697266
aF49.583953857421875
aF49.56159591674805
aF49.53931427001953
aF49.506141662597656
aF49.4752311706543
aF49.45342254638672
aF49.41881561279297
aF49.38584518432617
aF49.36431121826172
aF49.335472106933594
aF49.30768966674805
aF49.28529739379883
aF49.2525749206543
aF49.240055084228516
aF49.19847869873047
aF49.18006134033203
aF49.147308349609375
aF49.12537384033203
aF49.08748245239258
aF49.06511306762695
aF49.03388977050781
aF49.01417541503906
aF48.96755599975586
aF48.936561584472656
aF48.913761138916016
aF48.88224792480469
aF48.85166549682617
aF48.842071533203125
aF48.815185546875
aF48.784610748291016
aF48.739959716796875
aF48.72756576538086
aF48.693702697753906
aF48.662330627441406
aF48.642059326171875
aF48.627323150634766
aF48.597476959228516
aF48.598426818847656
aF48.55194854736328
aF48.526756286621094
aF48.473026275634766
aF48.44352340698242
aF48.41505813598633
aF48.36674880981445
aF48.33518981933594
aF48.303016662597656
aF48.26750946044922
aF48.198856353759766
aF48.17887496948242
aF48.111637115478516
aF48.06153106689453
aF48.02420425415039
aF48.007389068603516
aF47.94645309448242
aF47.864383697509766
aF47.845863342285156
aF47.7783088684082
aF47.72802734375
aF47.64289474487305
aF47.55427932739258
aF47.519020080566406
aF47.42229080200195
aF47.351009368896484
aF47.28261184692383
aF47.144508361816406
aF47.10611343383789
aF46.98808288574219
aF46.83867263793945
aF46.77115249633789
aF46.66100311279297
aF46.619483947753906
aF46.509490966796875
aF46.47364807128906
aF46.3335075378418
aF46.215694427490234
aF46.10485076904297
aF46.065956115722656
aF45.91050338745117
aF45.87374496459961
aF45.74912643432617
aF45.63428497314453
aF45.55778121948242
aF45.46036911010742
aF45.42173385620117
aF45.228946685791016
aF45.110267639160156
aF45.03134536743164
aF44.95433807373047
aF44.848724365234375
aF44.73212814331055
aF44.659271240234375
aF44.590667724609375
aF44.441162109375
aF44.288360595703125
aF44.174346923828125
aF44.02547836303711
aF43.99279022216797
aF43.835548400878906
aF43.762393951416016
aF43.690696716308594
aF43.53835678100586
aF43.4621467590332
aF43.34430694580078
aF43.267696380615234
aF43.11404037475586
aF43.037723541259766
aF42.91823196411133
aF42.80328369140625
aF42.734657287597656
aF42.632389068603516
aF42.555458068847656
aF42.44472885131836
aF42.371280670166016
aF42.25669479370117
aF42.187255859375
aF42.03547286987305
aF42.00674057006836
aF41.86503982543945
aF41.8278923034668
aF41.75485610961914
aF41.63943862915039
aF41.52745819091797
aF41.448482513427734
aF41.378074645996094
aF41.21976089477539
aF41.14717102050781
aF41.038455963134766
aF40.921085357666016
aF40.84848403930664
aF40.77261734008789
aF40.69942855834961
aF40.62472915649414
aF40.544185638427734
aF40.4676399230957
aF40.32570266723633
aF40.25383377075195
aF40.11390686035156
aF40.03595733642578
aF39.905635833740234
aF39.865787506103516
aF39.708580017089844
aF39.635807037353516
aF39.544105529785156
aF39.46257781982422
aF39.35973358154297
aF39.25535202026367
aF39.174102783203125
aF39.10662841796875
aF38.99728775024414
aF38.89152908325195
aF38.81652069091797
aF38.68952560424805
aF38.57829284667969
aF38.49291229248047
aF38.4156608581543
aF38.27081298828125
aF38.26837921142578
aF38.192832946777344
aF38.07205581665039
aF37.95623016357422
aF37.85966491699219
aF37.787574768066406
aF37.714534759521484
aF37.64106750488281
aF37.52873229980469
aF37.4487190246582
aF37.346805572509766
aF37.23662567138672
aF37.124107360839844
aF37.01145935058594
aF36.944190979003906
aF36.868804931640625
aF36.794647216796875
aF36.72098922729492
aF36.57155227661133
aF36.4987907409668
aF36.46223831176758
aF36.34912109375
aF36.31040954589844
aF36.16304016113281
aF36.091758728027344
aF35.983131408691406
aF35.94282531738281
aF35.83094787597656
aF35.725860595703125
aF35.648277282714844
aF35.53786087036133
aF35.45613098144531
aF35.336734771728516
aF35.265846252441406
aF35.2266731262207
aF35.07638931274414
aF34.99725341796875
aF34.930580139160156
aF34.858238220214844
aF34.788028717041016
aF34.63821792602539
aF34.56475830078125
aF34.49558639526367
aF34.38859558105469
aF34.308372497558594
aF34.19045639038086
aF34.1165885925293
aF34.00769805908203
aF33.93391036987305
aF33.86112594604492
aF33.74752426147461
aF33.673927307128906
aF33.56144332885742
aF33.45186233520508
aF33.3777961730957
aF33.3099250793457
aF33.23347091674805
aF33.12407684326172
aF33.087703704833984
aF32.97555923461914
aF32.828819274902344
aF32.752315521240234
aF32.67321014404297
aF32.59708023071289
aF32.519290924072266
aF32.405147552490234
aF32.330162048339844
aF32.2762336730957
aF32.203346252441406
aF32.05350112915039
aF32.00855255126953
aF31.948122024536133
aF31.906902313232422
aF31.891403198242188
aF31.813335418701172
aF31.800769805908203
aF31.764944076538086
aF31.725263595581055
aF31.653762817382812
aF31.613285064697266
aF31.551420211791992
aF31.44752311706543
aF31.409372329711914
aF31.33380699157715
aF31.22406768798828
aF31.121496200561523
aF31.051353454589844
aF30.9539737701416
aF30.863256454467773
aF30.843711853027344
aF30.805496215820312
aF30.797441482543945
aF30.760244369506836
aF30.728986740112305
aF30.718650817871094
aF30.709720611572266
aF30.687610626220703
aF30.645702362060547
aF30.629648208618164
aF30.579254150390625
aF30.551692962646484
aF30.524120330810547
aF30.460737228393555
aF30.4446964263916
aF30.392847061157227
aF30.364185333251953
aF30.31787109375
aF30.276872634887695
aF30.243249893188477
aF30.217424392700195
aF30.193986892700195
aF30.1573543548584
aF30.132734298706055
aF30.10609245300293
aF30.06455421447754
aF30.039287567138672
aF30.013160705566406
aF30.01544189453125
aF30.017608642578125
aF30.015907287597656
aF30.018428802490234
aF30.025341033935547
aF30.021398544311523
aF30.018640518188477
aF30.02058219909668
aF30.02002716064453
aF30.01509666442871
aF30.01544761657715
aF30.01467514038086
aF30.01203155517578
aF30.012248992919922
aF30.012269973754883
aF30.010286331176758
aF30.005979537963867
aF30.009294509887695
aF30.011926651000977
aF30.015134811401367
aF30.017789840698242
aF30.0185546875
aF30.018930435180664
aF30.02334213256836
aF30.02231216430664
aF30.02530288696289
aF30.029203414916992
aF30.03337287902832
aF30.032176971435547
aF30.034561157226562
aF30.030807495117188
aF30.02680015563965
aF30.032917022705078
aF30.03207778930664
aF30.031784057617188
aF30.02869987487793
aF30.029903411865234
aF30.029008865356445
aF30.029733657836914
aF30.030675888061523
aF30.03213882446289
aF30.034242630004883
aF30.03876304626465
aF30.040250778198242
aF30.039533615112305
aF30.044384002685547
aF30.041702270507812
aF30.04444122314453
aF30.039432525634766
aF30.04840087890625
aF30.051334381103516
aF30.047697067260742
aF30.043989181518555
aF30.04397964477539
aF30.047565460205078
aF30.047712326049805
aF30.046796798706055
aF30.050296783447266
aF30.048931121826172
aF30.051170349121094
aF30.04766082763672
aF30.052330017089844
aF30.050018310546875
aF30.051551818847656
aF30.05307388305664
aF30.0516357421875
aF30.054113388061523
aF30.05189323425293
aF30.048385620117188
asg5
(lp14
F0.0
aF0.1486377716064453
aF0.2564067840576172
aF0.3592960834503174
aF0.4660768508911133
aF0.5875308513641357
aF0.7125115394592285
aF0.821169376373291
aF0.9544041156768799
aF1.067044734954834
aF1.1297812461853027
aF1.2529125213623047
aF1.393867015838623
aF1.498213768005371
aF1.6028289794921875
aF1.7005937099456787
aF1.8132758140563965
aF1.933912754058838
aF2.0052437782287598
aF2.134575366973877
aF2.255821943283081
aF2.325330972671509
aF2.469243288040161
aF2.5352206230163574
aF2.681917428970337
aF2.799245595932007
aF2.891453504562378
aF3.009977340698242
aF3.1296138763427734
aF3.252535343170166
aF3.3340539932250977
aF3.451413631439209
aF3.527937412261963
aF3.652538537979126
aF3.7178447246551514
aF3.8243601322174072
aF4.003459215164185
aF4.085899353027344
aF4.1804211139678955
aF4.2992775440216064
aF4.400965213775635
aF4.5056071281433105
aF4.61721658706665
aF4.7118682861328125
aF4.8546531200408936
aF5.003929853439331
aF5.118663311004639
aF5.253911256790161
aF5.319704294204712
aF5.4524314403533936
aF5.516970157623291
aF5.685014009475708
aF5.807384014129639
aF5.907042503356934
aF6.004615783691406
aF6.1152403354644775
aF6.215427398681641
aF6.351158142089844
aF6.451974391937256
aF6.550445318222046
aF6.688916921615601
aF6.811919927597046
aF6.879803895950317
aF7.055851936340332
aF7.129897117614746
aF7.212484836578369
aF7.359679460525513
aF7.46326756477356
aF7.6021904945373535
aF7.7291576862335205
aF7.857545375823975
aF8.003720760345459
aF8.103503227233887
aF8.20069146156311
aF8.293605089187622
aF8.406070709228516
aF8.51400351524353
aF8.69158935546875
aF8.809479236602783
aF8.874403238296509
aF9.011924505233765
aF9.101217985153198
aF9.21636700630188
aF9.359925270080566
aF9.466400623321533
aF9.61013150215149
aF9.677451133728027
aF9.813590288162231
aF9.92340898513794
aF10.10164737701416
aF10.193949937820435
aF10.368880033493042
aF10.46109676361084
aF10.595860958099365
aF10.705989599227905
aF10.815092325210571
aF10.932628154754639
aF11.062661170959473
aF11.161031723022461
aF11.278252601623535
aF11.409430742263794
aF11.525693893432617
aF11.643802404403687
aF11.75203013420105
aF11.845491647720337
aF11.968972444534302
aF12.101745128631592
aF12.185792207717896
aF12.361670732498169
aF12.460219383239746
aF12.561611652374268
aF12.711208820343018
aF12.808294773101807
aF12.923940896987915
aF13.065981388092041
aF13.171921491622925
aF13.307228803634644
aF13.411535501480103
aF13.47920298576355
aF13.637625217437744
aF13.773521184921265
aF13.85997724533081
aF14.009868144989014
aF14.111517190933228
aF14.242228984832764
aF14.311473608016968
aF14.440441846847534
aF14.555960178375244
aF14.641430854797363
aF14.740020275115967
aF14.888830661773682
aF15.004099130630493
aF15.111973762512207
aF15.247222423553467
aF15.348480224609375
aF15.4414644241333
aF15.527928113937378
aF15.679940938949585
aF15.787416458129883
aF15.896532535552979
aF16.005550622940063
aF16.08186435699463
aF16.243957042694092
aF16.311728954315186
aF16.44349193572998
aF16.574429035186768
aF16.695926904678345
aF16.743557929992676
aF16.855243921279907
aF16.961106538772583
aF17.096361875534058
aF17.22329545021057
aF17.318464040756226
aF17.4478018283844
aF17.561228275299072
aF17.72348952293396
aF17.763132333755493
aF17.93992590904236
aF18.048574209213257
aF18.160892248153687
aF18.320644855499268
aF18.403384685516357
aF18.554548978805542
aF18.656597137451172
aF18.755446672439575
aF18.881983518600464
aF19.004249334335327
aF19.103934049606323
aF19.225648164749146
aF19.356560707092285
aF19.410910606384277
aF19.492711782455444
aF19.631948471069336
aF19.757141828536987
aF19.882275104522705
aF20.016319513320923
aF20.155378341674805
aF20.243107080459595
aF20.36392593383789
aF20.479435443878174
aF20.55707550048828
aF20.666781187057495
aF20.808454275131226
aF20.92420721054077
aF21.04168677330017
aF21.159342527389526
aF21.301695108413696
aF21.424108266830444
aF21.51592779159546
aF21.616096258163452
aF21.760924339294434
aF21.853925943374634
aF21.95673179626465
aF22.119090795516968
aF22.2005295753479
aF22.364707469940186
aF22.41728186607361
aF22.564707040786743
aF22.667043924331665
aF22.8081214427948
aF22.881056308746338
aF23.024070501327515
aF23.15616536140442
aF23.241775035858154
aF23.36036705970764
aF23.49676012992859
aF23.615931272506714
aF23.753362894058228
aF23.84252643585205
aF23.956125497817993
aF24.071901321411133
aF24.15593695640564
aF24.301918983459473
aF24.446154356002808
aF24.558932542800903
aF24.640532970428467
aF24.75692057609558
aF24.852718830108643
aF25.008223056793213
aF25.102572679519653
aF25.241762399673462
aF25.35711121559143
aF25.448638677597046
aF25.561814785003662
aF25.665453910827637
aF25.817940950393677
aF25.93167281150818
aF26.056609392166138
aF26.13476872444153
aF26.25031542778015
aF26.364139556884766
aF26.490260124206543
aF26.600308895111084
aF26.720427751541138
aF26.82196354866028
aF26.94635009765625
aF27.110038995742798
aF27.259924173355103
aF27.37489604949951
aF27.44392681121826
aF27.605870485305786
aF27.69357466697693
aF27.870187759399414
aF27.979475021362305
aF28.108863830566406
aF28.194770336151123
aF28.312215566635132
aF28.398919820785522
aF28.580927848815918
aF28.697638511657715
aF28.788569688796997
aF28.900470733642578
aF29.048534631729126
aF29.140190839767456
aF29.250651121139526
aF29.372337102890015
aF29.45281171798706
aF29.598509788513184
aF29.709253787994385
aF29.81271481513977
aF29.98594903945923
aF30.09284543991089
aF30.23417830467224
aF30.368974208831787
aF30.469820976257324
aF30.577805280685425
aF30.67945384979248
aF30.797311305999756
aF30.912411212921143
aF31.050460815429688
aF31.174132823944092
aF31.27371883392334
aF31.383333683013916
aF31.50929594039917
aF31.667925119400024
aF31.760010242462158
aF31.910006523132324
aF32.00241184234619
aF32.15924549102783
aF32.24469017982483
aF32.371922969818115
aF32.5359833240509
aF32.629287242889404
aF32.7197048664093
aF32.881190061569214
aF32.99708318710327
aF33.111241817474365
aF33.267436027526855
aF33.37752556800842
aF33.445253133773804
aF33.581552267074585
aF33.674705266952515
aF33.81144976615906
aF33.96679449081421
aF34.11815071105957
aF34.208601236343384
aF34.364723920822144
aF34.469318866729736
aF34.5248441696167
aF34.666483640670776
aF34.781861782073975
aF34.91992139816284
aF35.00852036476135
aF35.12446618080139
aF35.21861267089844
aF35.370498180389404
aF35.529144048690796
aF35.660624504089355
aF35.762664556503296
aF35.870784521102905
aF35.98521852493286
aF36.127607583999634
aF36.31779360771179
aF36.41533422470093
aF36.57003450393677
aF36.73369765281677
aF36.86901235580444
aF36.9289824962616
aF37.11976647377014
aF37.217586517333984
aF37.30771446228027
aF37.536154985427856
aF37.5846221446991
aF37.77495527267456
aF37.911394119262695
aF38.050349950790405
aF38.16763138771057
aF38.274216175079346
aF38.35853147506714
aF38.52269768714905
aF38.612820863723755
aF38.801125049591064
aF38.83896327018738
aF39.0494167804718
aF39.17651700973511
aF39.29159927368164
aF39.46854543685913
aF39.60138916969299
aF39.68392515182495
aF39.799132108688354
aF39.95244860649109
aF40.06588697433472
aF40.20168685913086
aF40.28603792190552
aF40.41050124168396
aF40.58168125152588
aF40.71412372589111
aF40.87453532218933
aF40.962722301483154
aF41.069743394851685
aF41.19967722892761
aF41.34813642501831
aF41.40973734855652
aF41.60709285736084
aF41.70771265029907
aF41.805896520614624
aF41.94140815734863
aF42.088001012802124
aF42.21900725364685
aF42.266579389572144
aF42.482978105545044
aF42.55595898628235
aF42.711928367614746
aF42.75695991516113
aF42.920997858047485
aF43.07249212265015
aF43.26578664779663
aF43.46594500541687
aF43.619258880615234
aF43.673638105392456
aF43.86654353141785
aF44.04652976989746
aF44.22074508666992
aF44.30392360687256
aF44.41295528411865
aF44.591925382614136
aF44.65615200996399
aF44.88379979133606
aF44.999934911727905
aF45.132542848587036
aF45.270299673080444
aF45.36077857017517
aF45.47367739677429
aF45.62033224105835
aF45.674091815948486
aF45.80799436569214
aF45.94793105125427
aF46.015809297561646
aF46.20631265640259
aF46.321608543395996
aF46.438742876052856
aF46.52036094665527
aF46.65809416770935
aF46.76210355758667
aF46.87193512916565
aF47.029284954071045
aF47.22533464431763
aF47.29983854293823
aF47.46223020553589
aF47.612743616104126
aF47.72918224334717
aF47.83583307266235
aF47.92303657531738
aF48.07227802276611
aF48.21316361427307
aF48.32724690437317
aF48.469099044799805
aF48.55747866630554
aF48.66713738441467
aF48.80180478096008
aF48.932244539260864
aF49.022621631622314
aF49.141926527023315
aF49.33415508270264
aF49.473464012145996
aF49.545345306396484
aF49.61459040641785
aF49.76563501358032
aF49.91363549232483
aF50.073875188827515
aF50.16404461860657
aF50.316261768341064
aF50.41192412376404
aF50.561174392700195
aF50.66750717163086
aF50.81961226463318
aF50.949700117111206
aF51.02392816543579
aF51.18185234069824
aF51.31837296485901
aF51.47127318382263
aF51.55906677246094
aF51.714951515197754
aF51.79999351501465
aF51.9573392868042
aF52.145018100738525
aF52.286925077438354
aF52.41976070404053
aF52.521775007247925
aF52.665854692459106
aF52.810506105422974
aF52.865540742874146
aF52.99986386299133
aF53.1180624961853
aF53.27635049819946
aF53.41292142868042
aF53.49217653274536
aF53.58365750312805
aF53.66161608695984
aF53.81251263618469
aF53.90634799003601
aF54.07999587059021
aF54.193021059036255
aF54.27993392944336
aF54.4079270362854
aF54.517956495285034
aF54.59992074966431
aF54.72473120689392
aF54.873767137527466
aF54.937716007232666
aF55.079925775527954
aF55.203943729400635
aF55.34238600730896
aF55.459930181503296
aF55.547098875045776
aF55.73200273513794
aF55.84080123901367
aF56.020026445388794
aF56.067235469818115
aF56.192856788635254
aF56.30320596694946
aF56.42567539215088
aF56.5059871673584
aF56.619402170181274
aF56.76349115371704
aF56.849732637405396
aF57.01724720001221
aF57.11778664588928
aF57.22451400756836
aF57.366783142089844
aF57.424678802490234
aF57.563740968704224
aF57.66613006591797
aF57.72882866859436
aF57.87602710723877
aF58.0214421749115
aF58.152411222457886
aF58.272483348846436
aF58.41542077064514
aF58.55783462524414
aF58.605489015579224
aF58.751932859420776
aF58.86929655075073
aF59.02462124824524
aF59.143434047698975
aF59.22088861465454
aF59.4133722782135
aF59.551483392715454
aF59.66200351715088
aF59.815860986709595
aF59.90493106842041
aF60.02178120613098
aF60.218976974487305
aF60.368693828582764
aF60.49845004081726
aF60.608601570129395
aF60.743032932281494
aF60.86963963508606
aF60.917240381240845
aF61.05733776092529
aF61.1621150970459
aF61.37513732910156
aF61.43993520736694
aF61.62082314491272
aF61.751665353775024
aF61.86833930015564
aF61.96792984008789
aF62.148324489593506
aF62.275774002075195
aF62.418144941329956
aF62.50645065307617
aF62.67027950286865
aF62.783937215805054
aF62.9534387588501
aF63.080726623535156
aF63.22246766090393
aF63.37232494354248
aF63.448405265808105
aF63.551029443740845
aF63.67619252204895
aF63.79345726966858
aF63.966389179229736
aF64.01483726501465
aF64.23002243041992
aF64.27571749687195
aF64.48747992515564
aF64.6101086139679
aF64.76574540138245
aF64.86386919021606
aF64.95400023460388
aF65.06313610076904
aF65.20969247817993
aF65.2977397441864
aF65.41307735443115
aF65.54635047912598
aF65.64274549484253
aF65.81082463264465
aF65.87129282951355
aF65.96392869949341
aF66.14208436012268
aF66.25877141952515
aF66.4087598323822
aF66.50984644889832
aF66.59346175193787
aF66.74977374076843
aF66.86009335517883
aF66.94005918502808
aF67.0620665550232
aF67.18104863166809
aF67.34792423248291
aF67.46516275405884
aF67.61584281921387
aF67.67053866386414
aF67.82234263420105
aF67.93192958831787
aF68.0426013469696
aF68.1518383026123
aF68.29082798957825
aF68.4675076007843
aF68.55327558517456
aF68.64820122718811
aF68.77607750892639
aF68.94381737709045
aF69.01229596138
aF69.15246820449829
aF69.27975082397461
aF69.43403220176697
aF69.48254013061523
aF69.65880489349365
aF69.77454876899719
aF69.92354440689087
aF70.06367707252502
aF70.15196323394775
aF70.24749755859375
aF70.37026596069336
aF70.47393441200256
aF70.56364893913269
aF70.73748326301575
aF70.85600161552429
aF70.94589471817017
aF71.22168231010437
aF71.30392527580261
aF71.52495884895325
aF71.62043166160583
aF71.77502584457397
aF71.85831594467163
aF71.9588360786438
aF72.10205340385437
aF72.16708040237427
aF72.38323259353638
aF72.44887828826904
aF72.57379674911499
aF72.72528553009033
aF72.84937572479248
aF73.01610994338989
aF73.13399624824524
aF73.25301957130432
aF73.41527342796326
aF73.51072669029236
aF73.66255307197571
aF73.74792289733887
aF73.91233277320862
aF74.12109017372131
aF74.21329164505005
aF74.25733804702759
aF74.41083478927612
aF74.54392337799072
aF74.6991240978241
aF74.79039335250854
aF74.93426632881165
aF75.10838747024536
aF75.17035865783691
aF75.33995151519775
aF75.50406169891357
aF75.60220956802368
aF75.73596978187561
aF75.82194185256958
aF76.01425218582153
aF76.10809755325317
aF76.25829267501831
aF76.35032939910889
aF76.51127028465271
aF76.61846399307251
aF76.76181244850159
aF76.82281684875488
aF77.03074765205383
aF77.18614745140076
aF77.3100848197937
aF77.43196392059326
aF77.56047821044922
aF77.61758160591125
aF77.79971623420715
aF77.92091131210327
aF78.11658358573914
aF78.20948600769043
aF78.32129645347595
aF78.5087525844574
aF78.59614992141724
aF78.69050407409668
aF78.81976342201233
aF78.88741445541382
aF79.07695174217224
aF79.19114851951599
aF79.33605861663818
aF79.44044017791748
aF79.56623029708862
aF79.71257472038269
aF79.81596565246582
aF79.92472100257874
aF80.04102611541748
aF80.22839736938477
aF80.29764890670776
aF80.49780082702637
aF80.63150763511658
aF80.71475100517273
aF80.79804062843323
aF80.93947911262512
aF81.12491989135742
aF81.2166531085968
aF81.36392426490784
aF81.43510484695435
aF81.59446287155151
aF81.72049450874329
aF81.82237553596497
aF81.98656415939331
aF82.06256437301636
aF82.12163400650024
aF82.31516170501709
aF82.45958495140076
aF82.57424712181091
aF82.72183108329773
aF82.832439661026
aF82.96376991271973
aF83.0010769367218
aF83.17203259468079
aF83.25227880477905
aF83.46811866760254
aF83.58578324317932
aF83.71888971328735
aF83.79193019866943
aF83.9843397140503
aF84.06392550468445
aF84.21891736984253
aF84.31041359901428
aF84.4482479095459
aF84.588796377182
aF84.65898895263672
aF84.85015678405762
aF85.02115535736084
aF85.11863446235657
aF85.26588821411133
aF85.39799523353577
aF85.51819467544556
aF85.64970183372498
aF85.73893761634827
aF85.96975636482239
aF86.15791535377502
aF86.27993106842041
aF86.46560049057007
aF86.54349708557129
aF86.70839524269104
aF86.80255436897278
aF86.95505475997925
aF87.13640928268433
aF87.25229692459106
aF87.3761956691742
aF87.52160429954529
aF87.61300945281982
aF87.76193261146545
aF87.90853834152222
aF88.05023980140686
aF88.17008924484253
aF88.32068753242493
aF88.41868042945862
aF88.56826567649841
aF88.67531228065491
aF88.79826784133911
aF88.9567232131958
aF89.13493943214417
aF89.212162733078
aF89.35812163352966
aF89.40362191200256
aF89.5596055984497
aF89.67989253997803
aF89.8084168434143
aF89.98607850074768
aF90.07993340492249
aF90.24678897857666
aF90.3503668308258
aF90.47544145584106
aF90.64228653907776
aF90.71389627456665
aF90.8494873046875
aF90.93828964233398
aF91.06071376800537
aF91.1516969203949
aF91.27193641662598
aF91.43354058265686
aF91.54212880134583
aF91.72672152519226
aF91.86190152168274
aF91.9841673374176
aF92.06006383895874
aF92.25993084907532
aF92.35005593299866
aF92.45896649360657
aF92.55678081512451
aF92.67005038261414
aF92.83885645866394
aF92.91332364082336
aF93.05741739273071
aF93.17923784255981
aF93.33611273765564
aF93.45193004608154
aF93.57549333572388
aF93.73187780380249
aF93.85169053077698
aF93.93684124946594
aF94.06547617912292
aF94.13693165779114
aF94.25563025474548
aF94.44212651252747
aF94.56062293052673
aF94.66927576065063
aF94.85009098052979
aF94.9379529953003
aF95.05192708969116
aF95.16462254524231
aF95.26260042190552
aF95.41451215744019
aF95.56885838508606
aF95.7143177986145
aF95.84900498390198
aF95.97064590454102
aF96.05610275268555
aF96.1742696762085
aF96.25381207466125
aF96.44579458236694
aF96.58688831329346
aF96.65277695655823
aF96.78383946418762
aF96.8516435623169
aF97.02093410491943
aF97.13395309448242
aF97.26798915863037
aF97.34792256355286
aF97.46558928489685
aF97.61412000656128
aF97.70880007743835
aF97.86025953292847
aF97.96665287017822
aF98.12586736679077
aF98.2095832824707
aF98.27031993865967
aF98.46252512931824
aF98.56912064552307
aF98.6714243888855
aF98.81192708015442
aF98.86075901985168
aF99.06471848487854
aF99.16788005828857
aF99.25348854064941
aF99.41094017028809
aF99.5216121673584
aF99.66844439506531
aF99.76557850837708
aF99.92832207679749
aF100.00720310211182
aF100.14178276062012
aF100.26392221450806
aF100.38427662849426
aF100.51601648330688
aF100.65649437904358
aF100.78028082847595
aF100.88810896873474
aF100.98792552947998
aF101.11673021316528
aF101.18391919136047
aF101.31212091445923
aF101.51562190055847
aF101.60774540901184
aF101.71626424789429
aF101.79413175582886
aF101.90606927871704
aF102.01636862754822
aF102.16410994529724
aF102.31302380561829
aF102.40494346618652
aF102.55792355537415
aF102.71140480041504
aF102.81764030456543
aF102.91186308860779
aF103.06678581237793
aF103.18161630630493
aF103.2351450920105
aF103.40593242645264
aF103.48492622375488
aF103.65675735473633
aF103.77820897102356
aF103.89370512962341
aF104.0121488571167
aF104.09626626968384
aF104.20568609237671
aF104.32638335227966
aF104.47003555297852
aF104.59310054779053
aF104.72161531448364
aF104.84025716781616
aF104.9094774723053
aF105.03866600990295
aF105.10824275016785
aF105.31582069396973
aF105.41210770606995
aF105.5534176826477
aF105.58974862098694
aF105.7502076625824
aF105.85262751579285
aF105.93193411827087
aF106.05469083786011
aF106.17047572135925
aF106.29592752456665
aF106.42296981811523
aF106.50432896614075
aF106.6520688533783
aF106.78279876708984
aF106.90840220451355
aF107.0224027633667
aF107.153799533844
aF107.23593974113464
aF107.37217712402344
aF107.51240396499634
aF107.60365676879883
aF107.72600722312927
aF107.8237898349762
aF107.97597932815552
aF108.11253356933594
aF108.20248889923096
aF108.34856081008911
aF108.45115733146667
aF108.55398654937744
aF108.67192363739014
aF108.80599761009216
aF108.92592668533325
aF109.06757426261902
aF109.20082807540894
aF109.32813239097595
aF109.39431285858154
aF109.51852893829346
aF109.60116267204285
aF109.76065731048584
aF109.87011981010437
aF110.00595736503601
aF110.12944960594177
aF110.24627327919006
aF110.35319375991821
aF110.45515298843384
aF110.55177545547485
aF110.66208696365356
aF110.7948100566864
aF110.91240167617798
aF111.06100249290466
aF111.164071559906
aF111.30535221099854
aF111.4000518321991
aF111.54808354377747
aF111.60794997215271
aF111.74987840652466
aF111.916090965271
aF112.00838994979858
aF112.20011806488037
aF112.30618929862976
aF112.41200995445251
aF112.54953074455261
aF112.63192343711853
aF112.7248113155365
aF112.85833692550659
aF112.93192291259766
aF113.03914999961853
aF113.18681502342224
aF113.30960083007812
aF113.38529944419861
aF113.51991868019104
aF113.5875084400177
aF113.70767450332642
aF113.86170291900635
aF113.9523696899414
aF114.06189250946045
aF114.26459741592407
aF114.34879779815674
aF114.46491122245789
aF114.63510608673096
aF114.74068522453308
aF114.86727619171143
aF114.97221064567566
aF115.0603597164154
aF115.1602110862732
aF115.32466673851013
aF115.4032096862793
aF115.55604290962219
aF115.66425609588623
aF115.83027911186218
aF115.92851901054382
aF116.0610830783844
aF116.10229659080505
aF116.24857783317566
asg7
(lp15
F-0.08837498724460602
aF-0.08137970417737961
aF-0.08596718311309814
aF-0.08113381266593933
aF-0.08419947326183319
aF-0.08669797331094742
aF-0.08643648773431778
aF-0.08024251461029053
aF-0.08035546541213989
aF-0.09819837659597397
aF-0.09928593784570694
aF-0.10883458703756332
aF-0.10864197462797165
aF-0.10960038751363754
aF-0.10968619585037231
aF-0.10930398106575012
aF-0.1101357489824295
aF-0.11054158955812454
aF-0.11058725416660309
aF-0.11003340780735016
aF-0.1101270318031311
aF-0.11045181751251221
aF-0.11101914942264557
aF-0.11119277775287628
aF-0.11114919930696487
aF-0.11113715171813965
aF-0.11074626445770264
aF-0.11099189519882202
aF-0.11114198714494705
aF-0.11251547932624817
aF-0.11234530806541443
aF-0.11286390572786331
aF-0.11296597123146057
aF-0.11247812211513519
aF-0.11186967045068741
aF-0.11162791401147842
aF-0.11008840799331665
aF-0.11198950558900833
aF-0.11344365030527115
aF-0.11051943153142929
aF-0.10903818905353546
aF-0.10704165697097778
aF-0.1065649464726448
aF-0.10900445282459259
aF-0.10947947204113007
aF-0.10561259835958481
aF-0.10681062936782837
aF-0.10326842218637466
aF-0.10435286164283752
aF-0.10368876159191132
aF-0.10255666077136993
aF-0.1051354631781578
aF-0.10350064933300018
aF-0.10556032508611679
aF-0.10552890598773956
aF-0.10449504107236862
aF-0.10634808987379074
aF-0.10903415083885193
aF-0.10680638998746872
aF-0.10951807349920273
aF-0.11215797811746597
aF-0.1129264310002327
aF-0.11116601526737213
aF-0.11603239923715591
aF-0.11899241805076599
aF-0.1179923564195633
aF-0.1172715499997139
aF-0.1206955686211586
aF-0.11899692565202713
aF-0.11872497200965881
aF-0.11302326619625092
aF-0.11370775103569031
aF-0.11432680487632751
aF-0.11221185326576233
aF-0.10716485232114792
aF-0.10783164948225021
aF-0.11319519579410553
aF-0.11189230531454086
aF-0.11177894473075867
aF-0.11240533739328384
aF-0.10970412194728851
aF-0.11068840324878693
aF-0.11111383885145187
aF-0.11102265119552612
aF-0.10914480686187744
aF-0.11137501895427704
aF-0.11095375567674637
aF-0.11098587512969971
aF-0.11271140724420547
aF-0.11089491844177246
aF-0.11171425879001617
aF-0.1187736764550209
aF-0.12152309715747833
aF-0.11735879629850388
aF-0.11379030346870422
aF-0.11848106980323792
aF-0.11645133048295975
aF-0.11850207298994064
aF-0.11992137879133224
aF-0.12054532766342163
aF-0.12304851412773132
aF-0.11877008527517319
aF-0.11891862004995346
aF-0.12016670405864716
aF-0.12224920839071274
aF-0.1210804209113121
aF-0.121268130838871
aF-0.12148872762918472
aF-0.12170469760894775
aF-0.12262895703315735
aF-0.12012812495231628
aF-0.12275329232215881
aF-0.12302578240633011
aF-0.12346984446048737
aF-0.11909271776676178
aF-0.12104187160730362
aF-0.12452247738838196
aF-0.12518610060214996
aF-0.10358783602714539
aF-0.10385207831859589
aF-0.10522159934043884
aF-0.10366417467594147
aF-0.10509324818849564
aF-0.10490790009498596
aF-0.10610198974609375
aF-0.1070329025387764
aF-0.10675640404224396
aF-0.10830540955066681
aF-0.10854556411504745
aF-0.10796748101711273
aF-0.1061844527721405
aF-0.10978798568248749
aF-0.15791204571723938
aF-0.19176582992076874
aF-0.18830350041389465
aF-0.18623560667037964
aF-0.1880185455083847
aF-0.18722191452980042
aF-0.18667501211166382
aF-0.18652017414569855
aF-0.18273983895778656
aF-0.15581856667995453
aF-0.11319643259048462
aF-0.04909348860383034
aF0.03633273392915726
aF0.08416441082954407
aF0.09943222999572754
aF0.09755793958902359
aF0.09805426001548767
aF0.10355772078037262
aF0.10509710758924484
aF0.10480533540248871
aF0.1181739941239357
aF0.183607280254364
aF0.26065486669540405
aF0.3684864342212677
aF0.35745739936828613
aF0.39862996339797974
aF0.3421323001384735
aF0.34146004915237427
aF0.35880404710769653
aF0.3513939380645752
aF0.3528054654598236
aF0.3925152122974396
aF0.35486504435539246
aF0.34830570220947266
aF0.3540288805961609
aF0.351525217294693
aF0.35286974906921387
aF0.3590615689754486
aF0.35841694474220276
aF0.35645899176597595
aF0.35805100202560425
aF0.35715174674987793
aF0.35849520564079285
aF0.34747663140296936
aF0.382153183221817
aF0.4072495996952057
aF0.3967655897140503
aF0.39758720993995667
aF0.39935657382011414
aF0.4055614471435547
aF0.41407230496406555
aF0.42522934079170227
aF0.4270801544189453
aF0.4415305554866791
aF0.45290714502334595
aF0.44863906502723694
aF0.4668179750442505
aF0.4790971279144287
aF0.47587889432907104
aF0.47562018036842346
aF0.47220075130462646
aF0.47184374928474426
aF0.47568345069885254
aF0.4760034382343292
aF0.4755568504333496
aF0.47642290592193604
aF0.4781935214996338
aF0.47670888900756836
aF0.478059858083725
aF0.47712019085884094
aF0.4740139842033386
aF0.475366473197937
aF0.47674378752708435
aF0.477007657289505
aF0.4749613106250763
aF0.4778617322444916
aF0.4767179787158966
aF0.4772869050502777
aF0.4785032570362091
aF0.4765474498271942
aF0.4895530343055725
aF0.5294814109802246
aF0.5560969710350037
aF0.5979915261268616
aF0.6199930906295776
aF0.6472903490066528
aF0.6766155362129211
aF0.7209777235984802
aF0.768632173538208
aF0.7923269867897034
aF0.8253480195999146
aF0.8486838340759277
aF0.8732013702392578
aF0.9360998868942261
aF0.9782930016517639
aF1.0451327562332153
aF1.0743999481201172
aF1.1355376243591309
aF1.1793227195739746
aF1.1915316581726074
aF1.186368465423584
aF1.1885920763015747
aF1.191819190979004
aF1.1963659524917603
aF1.1932322978973389
aF1.197416067123413
aF1.19504714012146
aF1.1937536001205444
aF1.193395972251892
aF1.197170615196228
aF1.1944228410720825
aF1.1910080909729004
aF1.1908427476882935
aF1.196117877960205
aF1.191719651222229
aF1.1928353309631348
aF1.2316648960113525
aF1.2850899696350098
aF1.3212467432022095
aF1.3440905809402466
aF1.3340202569961548
aF1.3406044244766235
aF1.3407782316207886
aF1.3421165943145752
aF1.341063380241394
aF1.343068242073059
aF1.344030737876892
aF1.3451225757598877
aF1.3510050773620605
aF1.3504228591918945
aF1.3515375852584839
aF1.3541555404663086
aF1.3518532514572144
aF1.3515138626098633
aF1.351904034614563
aF1.3530758619308472
aF1.3518083095550537
aF1.349396824836731
aF1.3516433238983154
aF1.3528900146484375
aF1.3540774583816528
aF1.3533018827438354
aF1.354792594909668
aF1.358489990234375
aF1.3565843105316162
aF1.3572502136230469
aF1.3582732677459717
aF1.356943130493164
aF1.3571479320526123
aF1.3751347064971924
aF1.3552913665771484
aF1.3754634857177734
aF1.3734121322631836
aF1.3757717609405518
aF1.3762632608413696
aF1.3729424476623535
aF1.381879210472107
aF1.3799564838409424
aF1.3765281438827515
aF1.3791145086288452
aF1.3709965944290161
aF1.3741543292999268
aF1.3839284181594849
aF1.3792002201080322
aF1.3734532594680786
aF1.3848419189453125
aF1.4045032262802124
aF1.4756789207458496
aF1.6148207187652588
aF1.7409902811050415
aF1.7737499475479126
aF1.7800118923187256
aF1.7810550928115845
aF1.7748521566390991
aF1.7535135746002197
aF1.7625420093536377
aF1.7635371685028076
aF1.7715870141983032
aF1.7701905965805054
aF1.7686271667480469
aF1.7705574035644531
aF1.7688945531845093
aF1.769148349761963
aF1.768887996673584
aF1.768431305885315
aF1.7668201923370361
aF1.7632601261138916
aF1.7597564458847046
aF1.7624857425689697
aF1.7658460140228271
aF1.7631157636642456
aF1.7645540237426758
aF1.7599290609359741
aF1.760948657989502
aF1.7647194862365723
aF1.7629088163375854
aF1.7670828104019165
aF1.771780252456665
aF1.7710285186767578
aF1.7746785879135132
aF1.7737408876419067
aF1.7729789018630981
aF1.7709224224090576
aF1.7746899127960205
aF1.7800662517547607
aF1.7731317281723022
aF1.7772363424301147
aF1.7765661478042603
aF1.7706753015518188
aF1.771429419517517
aF1.7746330499649048
aF1.774818778038025
aF1.7712656259536743
aF1.7700172662734985
aF1.7559009790420532
aF1.7677799463272095
aF1.7666044235229492
aF1.7503513097763062
aF1.7590417861938477
aF1.7393643856048584
aF1.7183645963668823
aF1.6728590726852417
aF1.643903136253357
aF1.605837106704712
aF1.6156373023986816
aF1.6105173826217651
aF1.602418303489685
aF1.6025573015213013
aF1.612191081047058
aF1.6102372407913208
aF1.6067745685577393
aF1.5940316915512085
aF1.6016638278961182
aF1.6110323667526245
aF1.6992188692092896
aF1.7201446294784546
aF1.7156785726547241
aF1.7187533378601074
aF1.7198141813278198
aF1.718342661857605
aF1.718641996383667
aF1.7175674438476562
aF1.7211450338363647
aF1.7267107963562012
aF1.7228631973266602
aF1.7228929996490479
aF1.7245242595672607
aF1.7256247997283936
aF1.7260147333145142
aF1.7271084785461426
aF1.7278163433074951
aF1.730730414390564
aF1.730001449584961
aF1.7317196130752563
aF1.726198434829712
aF1.7280045747756958
aF1.7266676425933838
aF1.7289769649505615
aF1.7264515161514282
aF1.7269877195358276
aF1.7229211330413818
aF1.7238446474075317
aF1.7233593463897705
aF1.7241668701171875
aF1.7236019372940063
aF1.7210286855697632
aF1.7188425064086914
aF1.7222040891647339
aF1.715080738067627
aF1.71124267578125
aF1.7113690376281738
aF1.7120000123977661
aF1.7183414697647095
aF1.7149410247802734
aF1.7208504676818848
aF1.7171372175216675
aF1.7194132804870605
aF1.7209110260009766
aF1.7222678661346436
aF1.7238458395004272
aF1.7249404191970825
aF1.7349252700805664
aF1.7333120107650757
aF1.7278852462768555
aF1.7262276411056519
aF1.7157971858978271
aF1.711943507194519
aF1.7113094329833984
aF1.7126479148864746
aF1.7127751111984253
aF1.7125046253204346
aF1.7093461751937866
aF1.7101244926452637
aF1.7102798223495483
aF1.708137035369873
aF1.7064433097839355
aF1.7062668800354004
aF1.71100652217865
aF1.7092012166976929
aF1.6894267797470093
aF1.7004930973052979
aF1.6881438493728638
aF1.6916253566741943
aF1.6892210245132446
aF1.6867114305496216
aF1.6849497556686401
aF1.6811492443084717
aF1.6827130317687988
aF1.6792281866073608
aF1.6824109554290771
aF1.6794555187225342
aF1.679134488105774
aF1.6801522970199585
aF1.6774240732192993
aF1.6743135452270508
aF1.6747784614562988
aF1.6710575819015503
aF1.678255558013916
aF1.6747426986694336
aF1.6713542938232422
aF1.6730784177780151
aF1.6717097759246826
aF1.6735602617263794
aF1.6750333309173584
aF1.6713563203811646
aF1.674264669418335
aF1.6721532344818115
aF1.670064926147461
aF1.6710790395736694
aF1.6675292253494263
aF1.6718307733535767
aF1.666987419128418
aF1.6673799753189087
aF1.6745398044586182
aF1.673854112625122
aF1.6704802513122559
aF1.6585004329681396
aF1.6613651514053345
aF1.6662129163742065
aF1.6619744300842285
aF1.6642987728118896
aF1.6657949686050415
aF1.6651513576507568
aF1.6736153364181519
aF1.6724284887313843
aF1.6699215173721313
aF1.6701948642730713
aF1.667700171470642
aF1.6686209440231323
aF1.6663577556610107
aF1.6665304899215698
aF1.6643494367599487
aF1.6626710891723633
aF1.6617451906204224
aF1.6607872247695923
aF1.6597788333892822
aF1.6641759872436523
aF1.660545825958252
aF1.6587754487991333
aF1.649946689605713
aF1.6454542875289917
aF1.6431922912597656
aF1.6460034847259521
aF1.6465727090835571
aF1.6476893424987793
aF1.6495301723480225
aF1.6506929397583008
aF1.6467362642288208
aF1.6509069204330444
aF1.6470420360565186
aF1.6382675170898438
aF1.634600281715393
aF1.639983892440796
aF1.6357672214508057
aF1.6360825300216675
aF1.6376683712005615
aF1.63826584815979
aF1.6356996297836304
aF1.635508418083191
aF1.6360656023025513
aF1.6331493854522705
aF1.634139060974121
aF1.6262378692626953
aF1.6233651638031006
aF1.6239814758300781
aF1.6217814683914185
aF1.621529459953308
aF1.6216027736663818
aF1.6220042705535889
aF1.6222327947616577
aF1.6240568161010742
aF1.6254544258117676
aF1.6248950958251953
aF1.628939151763916
aF1.6335878372192383
aF1.6333136558532715
aF1.6319512128829956
aF1.631532073020935
aF1.6332595348358154
aF1.6281956434249878
aF1.6247609853744507
aF1.6159076690673828
aF1.615315556526184
aF1.6127640008926392
aF1.6151800155639648
aF1.6129528284072876
aF1.6121705770492554
aF1.6096210479736328
aF1.6083357334136963
aF1.6032209396362305
aF1.6055207252502441
aF1.6074485778808594
aF1.6193592548370361
aF1.632285714149475
aF1.626367211341858
aF1.6290647983551025
aF1.628648042678833
aF1.626863956451416
aF1.6338305473327637
aF1.6707526445388794
aF1.692296028137207
aF1.6743240356445312
aF1.702821969985962
aF1.7469490766525269
aF1.7701958417892456
aF1.863083839416504
aF2.057887554168701
aF2.2598326206207275
aF2.348165273666382
aF2.4635355472564697
aF2.4916932582855225
aF2.595062494277954
aF2.670922040939331
aF2.726872205734253
aF2.723818778991699
aF2.7159411907196045
aF2.7572951316833496
aF2.7839088439941406
aF2.8142731189727783
aF2.839060068130493
aF2.9231197834014893
aF2.9818763732910156
aF3.0209786891937256
aF3.0887959003448486
aF3.1410534381866455
aF3.138247013092041
aF3.1270501613616943
aF3.140650987625122
aF-3.1209654808044434
aF-3.102104663848877
aF-3.119576930999756
aF-3.1170976161956787
aF-3.1161844730377197
aF-3.1055238246917725
aF-3.0658717155456543
aF-3.081463098526001
aF-3.0801994800567627
aF-3.0806212425231934
aF-3.0890984535217285
aF-3.091496229171753
aF-3.095231056213379
aF-3.092529535293579
aF-3.090763807296753
aF-3.0856056213378906
aF-3.044975996017456
aF-3.01379132270813
aF-3.025841474533081
aF-2.982516050338745
aF-2.944427728652954
aF-2.8678245544433594
aF-2.8397419452667236
aF-2.8540427684783936
aF-2.852024555206299
aF-2.8527181148529053
aF-2.851842164993286
aF-2.8462941646575928
aF-2.83316707611084
aF-2.8386261463165283
aF-2.838470935821533
aF-2.847202777862549
aF-2.8545186519622803
aF-2.850508689880371
aF-2.8520452976226807
aF-2.8492629528045654
aF-2.8468844890594482
aF-2.856300115585327
aF-2.852484941482544
aF-2.8519232273101807
aF-2.8528292179107666
aF-2.8505215644836426
aF-2.857855796813965
aF-2.8616907596588135
aF-2.8578431606292725
aF-2.857496500015259
aF-2.857025384902954
aF-2.8613388538360596
aF-2.862358808517456
aF-2.860873222351074
aF-2.855487823486328
aF-2.848801374435425
aF-2.850621223449707
aF-2.858954906463623
aF-2.8593876361846924
aF-2.863086462020874
aF-2.8515470027923584
aF-2.862375259399414
aF-2.8622701168060303
aF-2.8650436401367188
aF-2.8693790435791016
aF-2.8722243309020996
aF-2.8706839084625244
aF-2.8645925521850586
aF-2.8629584312438965
aF-2.85866641998291
aF-2.8557307720184326
aF-2.8573760986328125
aF-2.833897590637207
aF-2.8456830978393555
aF-2.8182170391082764
aF-2.786842107772827
aF-2.7828192710876465
aF-2.778369903564453
aF-2.7661261558532715
aF-2.7396981716156006
aF-2.728203535079956
aF-2.7156057357788086
aF-2.684781312942505
aF-2.6598997116088867
aF-2.6553966999053955
aF-2.6552982330322266
aF-2.6480138301849365
aF-2.653254985809326
aF-2.623594284057617
aF-2.6083223819732666
aF-2.579233169555664
aF-2.5227911472320557
aF-2.5037975311279297
aF-2.4611189365386963
aF-2.3706891536712646
aF-2.306270122528076
aF-2.2069268226623535
aF-2.169665813446045
aF-2.089179277420044
aF-2.0047731399536133
aF-1.980034351348877
aF-1.868326187133789
aF-1.8544319868087769
aF-1.73683500289917
aF-1.6358833312988281
aF-1.5936585664749146
aF-1.513258695602417
aF-1.4962862730026245
aF-1.46133291721344
aF-1.463281512260437
aF-1.460416555404663
aF-1.460376262664795
aF-1.4634668827056885
aF-1.4636214971542358
aF-1.4797749519348145
aF-1.4755297899246216
aF-1.5078272819519043
aF-1.5590879917144775
aF-1.573578119277954
aF-1.579433798789978
aF-1.5805647373199463
aF-1.5897762775421143
aF-1.5920077562332153
aF-1.64250910282135
aF-1.6632546186447144
aF-1.6567885875701904
aF-1.6497856378555298
aF-1.6527225971221924
aF-1.653544545173645
aF-1.654096245765686
aF-1.6605064868927002
aF-1.6586226224899292
aF-1.662424087524414
aF-1.6603094339370728
aF-1.6609536409378052
aF-1.6594679355621338
aF-1.659912109375
aF-1.6623600721359253
aF-1.6675626039505005
aF-1.668820858001709
aF-1.6676603555679321
aF-1.6744334697723389
aF-1.6725146770477295
aF-1.6759264469146729
aF-1.6741575002670288
aF-1.6753777265548706
aF-1.6777210235595703
aF-1.680051565170288
aF-1.6832830905914307
aF-1.6788194179534912
aF-1.6845240592956543
aF-1.683997631072998
aF-1.680505633354187
aF-1.6838483810424805
aF-1.6815853118896484
aF-1.6804285049438477
aF-1.6800755262374878
aF-1.6797109842300415
aF-1.633992075920105
aF-1.5906647443771362
aF-1.5655272006988525
aF-1.570304036140442
aF-1.5738950967788696
aF-1.5876497030258179
aF-1.5820261240005493
aF-1.5869706869125366
aF-1.584700107574463
aF-1.5803568363189697
aF-1.5801918506622314
aF-1.583415150642395
aF-1.5831248760223389
aF-1.5825493335723877
aF-1.5865017175674438
aF-1.5834884643554688
aF-1.5812015533447266
aF-1.5878829956054688
aF-1.586411476135254
aF-1.5867537260055542
aF-1.5822674036026
aF-1.5868374109268188
aF-1.5882066488265991
aF-1.5879848003387451
aF-1.5874450206756592
aF-1.5953444242477417
aF-1.6192197799682617
aF-1.6200462579727173
aF-1.6115821599960327
aF-1.625821590423584
aF-1.6229039430618286
aF-1.6253739595413208
aF-1.6271843910217285
aF-1.621475100517273
aF-1.688101053237915
aF-1.678175449371338
aF-1.677335262298584
aF-1.673929214477539
aF-1.6717101335525513
aF-1.6677606105804443
aF-1.6678595542907715
aF-1.6677029132843018
aF-1.6652605533599854
aF-1.6697417497634888
aF-1.6662908792495728
aF-1.6637773513793945
aF-1.6660462617874146
aF-1.663494348526001
aF-1.6687434911727905
aF-1.6674084663391113
aF-1.6709039211273193
aF-1.6655713319778442
aF-1.6645671129226685
aF-1.6755017042160034
aF-1.6707345247268677
aF-1.6761260032653809
aF-1.6766184568405151
aF-1.6724656820297241
aF-1.682742953300476
aF-1.681281566619873
aF-1.6819714307785034
aF-1.683719277381897
aF-1.6801620721817017
aF-1.6778582334518433
aF-1.6800731420516968
aF-1.6867709159851074
aF-1.6866679191589355
aF-1.6846084594726562
aF-1.6822731494903564
aF-1.6809637546539307
aF-1.6813929080963135
aF-1.6819484233856201
aF-1.6812528371810913
aF-1.6849894523620605
aF-1.683302402496338
aF-1.68014395236969
aF-1.6830047369003296
aF-1.6821788549423218
aF-1.6864585876464844
aF-1.6763795614242554
aF-1.6692110300064087
aF-1.6675536632537842
aF-1.634200930595398
aF-1.6326854228973389
aF-1.635725975036621
aF-1.638994812965393
aF-1.636812686920166
aF-1.6430370807647705
aF-1.6431342363357544
aF-1.6486176252365112
aF-1.6555856466293335
aF-1.6496964693069458
aF-1.6463195085525513
aF-1.6470005512237549
aF-1.6432100534439087
aF-1.637475848197937
aF-1.6416560411453247
aF-1.6372498273849487
aF-1.6331948041915894
aF-1.6280442476272583
aF-1.6254963874816895
aF-1.6259899139404297
aF-1.6563305854797363
aF-1.65378737449646
aF-1.6575292348861694
aF-1.6617646217346191
aF-1.6714905500411987
aF-1.681386947631836
aF-1.6747941970825195
aF-1.643525242805481
aF-1.6392031908035278
aF-1.603223204612732
aF-1.589241623878479
aF-1.5554627180099487
aF-1.534071922302246
aF-1.5037261247634888
aF-1.4570648670196533
aF-1.4406260251998901
aF-1.3903335332870483
aF-1.3020274639129639
aF-1.2223010063171387
aF-1.171506404876709
aF-1.0951921939849854
aF-1.0146576166152954
aF-0.9889246225357056
aF-0.9163364171981812
aF-0.8918690085411072
aF-0.7936295866966248
aF-0.7218551635742188
aF-0.6982213258743286
aF-0.7011378407478333
aF-0.7047637701034546
aF-0.7056314945220947
aF-0.7108020186424255
aF-0.7163755297660828
aF-0.7162649035453796
aF-0.7142724394798279
aF-0.7095285654067993
aF-0.7108767032623291
aF-0.7173049449920654
aF-0.7149036526679993
aF-0.7077728509902954
aF-0.6952930092811584
aF-0.6976097822189331
aF-0.6902656555175781
aF-0.6661751866340637
aF-0.5830674767494202
aF-0.5206471085548401
aF-0.48684564232826233
aF-0.4896429479122162
aF-0.48704349994659424
aF-0.446092426776886
aF-0.44664469361305237
aF-0.4518764317035675
aF-0.4508105218410492
aF-0.45124050974845886
aF-0.4452769160270691
aF-0.4487910568714142
aF-0.45050692558288574
aF-0.4472597539424896
aF-0.443788081407547
aF-0.4486634135246277
aF-0.4492393732070923
aF-0.4489268660545349
aF-0.4425695836544037
aF-0.42814162373542786
aF-0.41874635219573975
aF-0.406487375497818
aF-0.39259886741638184
aF-0.3619411587715149
aF-0.3411555290222168
aF-0.3235110342502594
aF-0.31973302364349365
aF-0.31810736656188965
aF-0.31956103444099426
aF-0.3175303637981415
aF-0.3237696886062622
aF-0.31865087151527405
aF-0.30781105160713196
aF-0.29638203978538513
aF-0.2879386246204376
aF-0.28276297450065613
aF-0.27465423941612244
aF-0.2229837030172348
aF-0.15802718698978424
aF-0.13194091618061066
aF-0.13141348958015442
aF-0.1383277326822281
aF-0.16635839641094208
aF-0.186177060008049
aF-0.18315038084983826
aF-0.1833484023809433
aF-0.18274664878845215
aF-0.17998699843883514
aF-0.17756511270999908
aF-0.17706716060638428
aF-0.1770629584789276
aF-0.17522604763507843
aF-0.1770361065864563
aF-0.1745232194662094
aF-0.17752493917942047
aF-0.17071110010147095
aF-0.169039785861969
aF-0.17278188467025757
aF-0.1753157377243042
aF-0.17533934116363525
aF-0.17330682277679443
aF-0.17298412322998047
aF-0.17414304614067078
aF-0.17192180454730988
aF-0.17241746187210083
aF-0.17037880420684814
aF-0.1725776642560959
aF-0.1689411699771881
aF-0.17034310102462769
aF-0.16803571581840515
aF-0.16757889091968536
aF-0.16858789324760437
aF-0.16699425876140594
aF-0.16883516311645508
aF-0.1713661402463913
asg9
(lp16
F11.270277976989746
aF11.268097877502441
aF11.267094612121582
aF11.269490242004395
aF11.271986961364746
aF11.272501945495605
aF11.270856857299805
aF11.26738166809082
aF11.270235061645508
aF11.268193244934082
aF11.269051551818848
aF11.269625663757324
aF11.26876163482666
aF11.268168449401855
aF11.266989707946777
aF11.267643928527832
aF11.267374992370605
aF11.265941619873047
aF11.26598834991455
aF11.265487670898438
aF11.265061378479004
aF11.26496696472168
aF11.265403747558594
aF11.265556335449219
aF11.264627456665039
aF11.264328956604004
aF11.264900207519531
aF11.272235870361328
aF11.309989929199219
aF11.348870277404785
aF11.392855644226074
aF11.435294151306152
aF11.472886085510254
aF11.505281448364258
aF11.536554336547852
aF11.5543212890625
aF11.645501136779785
aF11.669150352478027
aF11.738653182983398
aF11.783822059631348
aF11.827505111694336
aF11.872002601623535
aF11.941314697265625
aF11.96298599243164
aF12.03071403503418
aF12.099383354187012
aF12.171297073364258
aF12.214195251464844
aF12.259567260742188
aF12.305304527282715
aF12.351287841796875
aF12.417181968688965
aF12.464054107666016
aF12.508625984191895
aF12.554332733154297
aF12.620681762695312
aF12.640140533447266
aF12.708128929138184
aF12.754790306091309
aF12.796276092529297
aF12.866934776306152
aF12.910889625549316
aF12.934322357177734
aF13.02289867401123
aF13.066328048706055
aF13.090078353881836
aF13.157219886779785
aF13.20129680633545
aF13.25042724609375
aF13.341410636901855
aF13.384430885314941
aF13.453879356384277
aF13.503583908081055
aF13.55749797821045
aF13.652267456054688
aF13.680520057678223
aF13.778718948364258
aF13.831116676330566
aF13.913589477539062
aF13.941915512084961
aF14.032964706420898
aF14.089142799377441
aF14.151644706726074
aF14.23835277557373
aF14.29645824432373
aF14.383609771728516
aF14.413651466369629
aF14.502058029174805
aF14.587152481079102
aF14.67219352722168
aF14.728513717651367
aF14.812498092651367
aF14.85414981842041
aF14.869641304016113
aF14.868764877319336
aF14.864529609680176
aF14.869171142578125
aF14.869673728942871
aF14.869664192199707
aF14.876296997070312
aF14.884790420532227
aF14.92087173461914
aF14.950855255126953
aF14.975015640258789
aF14.997451782226562
aF15.024121284484863
aF15.074721336364746
aF15.110004425048828
aF15.159523010253906
aF15.209561347961426
aF15.229378700256348
aF15.303609848022461
aF15.323953628540039
aF15.383173942565918
aF15.445704460144043
aF15.463624954223633
aF15.53790283203125
aF15.558431625366211
aF15.607505798339844
aF15.681827545166016
aF15.730609893798828
aF15.80866527557373
aF15.86181354522705
aF15.943601608276367
aF15.999760627746582
aF16.05061912536621
aF16.099565505981445
aF16.15274429321289
aF16.207733154296875
aF16.265295028686523
aF16.346057891845703
aF16.404726028442383
aF16.486581802368164
aF16.536935806274414
aF16.590232849121094
aF16.63825225830078
aF16.664731979370117
aF16.775684356689453
aF16.799283981323242
aF16.876039505004883
aF16.9322452545166
aF16.987707138061523
aF17.069719314575195
aF17.124319076538086
aF17.185483932495117
aF17.238475799560547
aF17.317787170410156
aF17.346519470214844
aF17.403072357177734
aF17.45958137512207
aF17.53370475769043
aF17.585071563720703
aF17.637678146362305
aF17.715246200561523
aF17.762117385864258
aF17.842731475830078
aF17.862720489501953
aF17.960886001586914
aF18.0036678314209
aF18.05666160583496
aF18.135028839111328
aF18.176454544067383
aF18.244842529296875
aF18.292388916015625
aF18.342819213867188
aF18.40496063232422
aF18.45114517211914
aF18.502120971679688
aF18.5478458404541
aF18.618450164794922
aF18.64010238647461
aF18.681657791137695
aF18.72381591796875
aF18.78486442565918
aF18.84824562072754
aF18.88817024230957
aF18.94923973083496
aF18.994035720825195
aF19.035560607910156
aF19.078567504882812
aF19.118112564086914
aF19.176740646362305
aF19.216814041137695
aF19.282636642456055
aF19.301998138427734
aF19.358251571655273
aF19.416006088256836
aF19.454811096191406
aF19.497249603271484
aF19.53597068786621
aF19.596282958984375
aF19.638639450073242
aF19.684734344482422
aF19.7905216217041
aF19.81692886352539
aF19.872343063354492
aF19.899272918701172
aF19.981164932250977
aF20.065292358398438
aF20.12251853942871
aF20.1788330078125
aF20.239070892333984
aF20.316518783569336
aF20.375207901000977
aF20.43773078918457
aF20.52880096435547
aF20.585830688476562
aF20.68161964416504
aF20.743330001831055
aF20.79549789428711
aF20.88515853881836
aF20.91594123840332
aF21.005598068237305
aF21.092742919921875
aF21.14617347717285
aF21.199403762817383
aF21.25023078918457
aF21.30525779724121
aF21.389575958251953
aF21.442134857177734
aF21.52025604248047
aF21.5755558013916
aF21.628612518310547
aF21.68087387084961
aF21.735599517822266
aF21.813522338867188
aF21.87051010131836
aF21.94553565979004
aF21.967741012573242
aF22.040786743164062
aF22.086864471435547
aF22.14462661743164
aF22.16366195678711
aF22.173542022705078
aF22.180891036987305
aF22.197433471679688
aF22.235990524291992
aF22.25470542907715
aF22.269975662231445
aF22.278671264648438
aF22.310279846191406
aF22.32362937927246
aF22.348142623901367
aF22.36463737487793
aF22.386098861694336
aF22.398193359375
aF22.414993286132812
aF22.421497344970703
aF22.446231842041016
aF22.472900390625
aF22.486629486083984
aF22.50775718688965
aF22.53537940979004
aF22.548267364501953
aF22.556625366210938
aF22.57949447631836
aF22.595277786254883
aF22.61872673034668
aF22.632347106933594
aF22.642391204833984
aF22.652254104614258
aF22.664794921875
aF22.676605224609375
aF22.682764053344727
aF22.693572998046875
aF22.7027587890625
aF22.71377182006836
aF22.72867774963379
aF22.73727798461914
aF22.752716064453125
aF22.762521743774414
aF22.772581100463867
aF22.781463623046875
aF22.794925689697266
aF22.809728622436523
aF22.81787872314453
aF22.83450698852539
aF22.845149993896484
aF22.86004638671875
aF22.86617088317871
aF22.876432418823242
aF22.881521224975586
aF22.903287887573242
aF22.899503707885742
aF22.92247200012207
aF22.930511474609375
aF22.93893051147461
aF22.948089599609375
aF22.953718185424805
aF22.9583683013916
aF22.971708297729492
aF22.983469009399414
aF22.991436004638672
aF23.003786087036133
aF23.015399932861328
aF23.025911331176758
aF23.0406551361084
aF23.04734230041504
aF23.048898696899414
aF23.047956466674805
aF23.05340576171875
aF23.054187774658203
aF23.059326171875
aF23.05947494506836
aF23.053930282592773
aF23.053730010986328
aF23.045001983642578
aF23.03620147705078
aF23.02068328857422
aF23.010204315185547
aF23.002098083496094
aF22.990684509277344
aF22.973913192749023
aF22.966434478759766
aF22.95532989501953
aF22.935527801513672
aF22.925600051879883
aF22.915523529052734
aF22.895326614379883
aF22.885419845581055
aF22.879995346069336
aF22.852266311645508
aF22.846790313720703
aF22.82375144958496
aF22.809581756591797
aF22.799835205078125
aF22.78745460510254
aF22.777647018432617
aF22.77442741394043
aF22.748600006103516
aF22.742029190063477
aF22.72270393371582
aF22.71294593811035
aF22.69779396057129
aF22.679893493652344
aF22.663515090942383
aF22.636573791503906
aF22.62652015686035
aF22.613086700439453
aF22.592893600463867
aF22.578771591186523
aF22.561790466308594
aF22.542142868041992
aF22.530597686767578
aF22.512399673461914
aF22.50466537475586
aF22.501190185546875
aF22.494508743286133
aF22.496889114379883
aF22.50934410095215
aF22.510263442993164
aF22.51607322692871
aF22.516735076904297
aF22.51319694519043
aF22.513084411621094
aF22.513504028320312
aF22.510160446166992
aF22.51594352722168
aF22.52482032775879
aF22.52706527709961
aF22.53042984008789
aF22.533008575439453
aF22.53690528869629
aF22.544523239135742
aF22.548301696777344
aF22.55526351928711
aF22.558000564575195
aF22.561927795410156
aF22.56340789794922
aF22.561725616455078
aF22.55779457092285
aF22.55702781677246
aF22.55556869506836
aF22.5549259185791
aF22.553863525390625
aF22.546642303466797
aF22.543912887573242
aF22.535703659057617
aF22.529747009277344
aF22.522674560546875
aF22.514081954956055
aF22.509078979492188
aF22.502599716186523
aF22.49709129333496
aF22.48992919921875
aF22.482982635498047
aF22.480924606323242
aF22.478240966796875
aF22.471487045288086
aF22.466297149658203
aF22.46387481689453
aF22.46222686767578
aF22.455440521240234
aF22.44993782043457
aF22.44724464416504
aF22.442644119262695
aF22.437271118164062
aF22.43657875061035
aF22.428871154785156
aF22.422636032104492
aF22.421478271484375
aF22.416719436645508
aF22.41175651550293
aF22.400470733642578
aF22.391223907470703
aF22.378786087036133
aF22.36436653137207
aF22.356338500976562
aF22.34632110595703
aF22.329191207885742
aF22.31938362121582
aF22.309621810913086
aF22.298357009887695
aF22.270465850830078
aF22.253639221191406
aF22.24989128112793
aF22.245450973510742
aF22.232627868652344
aF22.229461669921875
aF22.2230224609375
aF22.22050666809082
aF22.216684341430664
aF22.210601806640625
aF22.207494735717773
aF22.20562744140625
aF22.201990127563477
aF22.204551696777344
aF22.20926284790039
aF22.221797943115234
aF22.218944549560547
aF22.21159553527832
aF22.202531814575195
aF22.194965362548828
aF22.18792724609375
aF22.174633026123047
aF22.164344787597656
aF22.156089782714844
aF22.1464786529541
aF22.14177131652832
aF22.133277893066406
aF22.124282836914062
aF22.120542526245117
aF22.116779327392578
aF22.108884811401367
aF22.095653533935547
aF22.09214210510254
aF22.08744239807129
aF22.083534240722656
aF22.080204010009766
aF22.07011604309082
aF22.06618881225586
aF22.058521270751953
aF22.05144500732422
aF22.045652389526367
aF22.040006637573242
aF22.03074073791504
aF22.02469253540039
aF22.018611907958984
aF22.00929069519043
aF22.004350662231445
aF21.998062133789062
aF21.99066925048828
aF21.981048583984375
aF21.97644805908203
aF21.971607208251953
aF21.9628963470459
aF21.957216262817383
aF21.95271873474121
aF21.954872131347656
aF21.948930740356445
aF21.946775436401367
aF21.941545486450195
aF21.93825912475586
aF21.93275260925293
aF21.92876434326172
aF21.91636848449707
aF21.907960891723633
aF21.902509689331055
aF21.896883010864258
aF21.8922119140625
aF21.887760162353516
aF21.881996154785156
aF21.875520706176758
aF21.873743057250977
aF21.869104385375977
aF21.860532760620117
aF21.85497283935547
aF21.85070037841797
aF21.843584060668945
aF21.842937469482422
aF21.838563919067383
aF21.838523864746094
aF21.835716247558594
aF21.8310489654541
aF21.82577896118164
aF21.820783615112305
aF21.809001922607422
aF21.802568435668945
aF21.79581642150879
aF21.791017532348633
aF21.785287857055664
aF21.78025245666504
aF21.774927139282227
aF21.765056610107422
aF21.76469612121582
aF21.753883361816406
aF21.748199462890625
aF21.742170333862305
aF21.73966407775879
aF21.737869262695312
aF21.733911514282227
aF21.722936630249023
aF21.72153663635254
aF21.70671844482422
aF21.70075798034668
aF21.68972396850586
aF21.680822372436523
aF21.66706085205078
aF21.64531707763672
aF21.61658477783203
aF21.596302032470703
aF21.576356887817383
aF21.55031967163086
aF21.529726028442383
aF21.518333435058594
aF21.50189971923828
aF21.483137130737305
aF21.476545333862305
aF21.460081100463867
aF21.450965881347656
aF21.43644142150879
aF21.429533004760742
aF21.422895431518555
aF21.412893295288086
aF21.40984344482422
aF21.397153854370117
aF21.387727737426758
aF21.379791259765625
aF21.374631881713867
aF21.372652053833008
aF21.366275787353516
aF21.359512329101562
aF21.353004455566406
aF21.345598220825195
aF21.340482711791992
aF21.331823348999023
aF21.3225154876709
aF21.3173885345459
aF21.31008529663086
aF21.300537109375
aF21.288692474365234
aF21.278589248657227
aF21.272380828857422
aF21.2700138092041
aF21.251832962036133
aF21.239154815673828
aF21.233457565307617
aF21.209775924682617
aF21.205663681030273
aF21.17197036743164
aF21.132646560668945
aF21.060117721557617
aF21.03434181213379
aF20.95364761352539
aF20.899675369262695
aF20.841463088989258
aF20.77669334411621
aF20.682083129882812
aF20.58740234375
aF20.524547576904297
aF20.45909309387207
aF20.389936447143555
aF20.256134033203125
aF20.190906524658203
aF20.12276268005371
aF20.018667221069336
aF19.9173641204834
aF19.88250732421875
aF19.78632354736328
aF19.65932273864746
aF19.63299560546875
aF19.544160842895508
aF19.489505767822266
aF19.43870735168457
aF19.38620948791504
aF19.32309341430664
aF19.260589599609375
aF19.140256881713867
aF19.08890724182129
aF19.03620147705078
aF18.901809692382812
aF18.847002029418945
aF18.680574417114258
aF18.646635055541992
aF18.51837158203125
aF18.48581314086914
aF18.424062728881836
aF18.33365249633789
aF18.278953552246094
aF18.160932540893555
aF18.131397247314453
aF18.046905517578125
aF17.993566513061523
aF17.911684036254883
aF17.81891441345215
aF17.71660041809082
aF17.64919662475586
aF17.553546905517578
aF17.462892532348633
aF17.370704650878906
aF17.338165283203125
aF17.23595428466797
aF17.091777801513672
aF17.019737243652344
aF16.948017120361328
aF16.877885818481445
aF16.774404525756836
aF16.664810180664062
aF16.59282112121582
aF16.482656478881836
aF16.37445068359375
aF16.304080963134766
aF16.19824981689453
aF16.092891693115234
aF16.02157974243164
aF15.912450790405273
aF15.874330520629883
aF15.72718620300293
aF15.658295631408691
aF15.54856014251709
aF15.479415893554688
aF15.367501258850098
aF15.29694652557373
aF15.188288688659668
aF15.118001937866211
aF14.964095115661621
aF14.862947463989258
aF14.787102699279785
aF14.681929588317871
aF14.567887306213379
aF14.53087329864502
aF14.424120903015137
aF14.316017150878906
aF14.166964530944824
aF14.129865646362305
aF14.023322105407715
aF13.917363166809082
aF13.84579849243164
aF13.793197631835938
aF13.680843353271484
aF13.668682098388672
aF13.541666984558105
aF13.474857330322266
aF13.335306167602539
aF13.269917488098145
aF13.215643882751465
aF13.119428634643555
aF13.053833961486816
aF12.987333297729492
aF12.91230297088623
aF12.782712936401367
aF12.748268127441406
aF12.623958587646484
aF12.52608585357666
aF12.466523170471191
aF12.437191009521484
aF12.332735061645508
aF12.212590217590332
aF12.186532974243164
aF12.099098205566406
aF12.058919906616211
aF11.97541618347168
aF11.92152214050293
aF11.907098770141602
aF11.858268737792969
aF11.84032917022705
aF11.801409721374512
aF11.756712913513184
aF11.742043495178223
aF11.728273391723633
aF11.707449913024902
aF11.699995040893555
aF11.695405006408691
aF11.693528175354004
aF11.698363304138184
aF11.700104713439941
aF11.71513557434082
aF11.725988388061523
aF11.736116409301758
aF11.73706340789795
aF11.750089645385742
aF11.757625579833984
aF11.77774715423584
aF11.76401424407959
aF11.772430419921875
aF11.772290229797363
aF11.776250839233398
aF11.7749605178833
aF11.776451110839844
aF11.771913528442383
aF11.772584915161133
aF11.768025398254395
aF11.759256362915039
aF11.752057075500488
aF11.745851516723633
aF11.733186721801758
aF11.721944808959961
aF11.711609840393066
aF11.69872760772705
aF11.69549560546875
aF11.683734893798828
aF11.676692008972168
aF11.670551300048828
aF11.651947975158691
aF11.642695426940918
aF11.632909774780273
aF11.627446174621582
aF11.610335350036621
aF11.603591918945312
aF11.590739250183105
aF11.576155662536621
aF11.570135116577148
aF11.562565803527832
aF11.554825782775879
aF11.543944358825684
aF11.53702449798584
aF11.521202087402344
aF11.51201057434082
aF11.492786407470703
aF11.48805046081543
aF11.471437454223633
aF11.466789245605469
aF11.456745147705078
aF11.437233924865723
aF11.433847427368164
aF11.421856880187988
aF11.4257173538208
aF11.424213409423828
aF11.419663429260254
aF11.411245346069336
aF11.408098220825195
aF11.40640640258789
aF11.407431602478027
aF11.408522605895996
aF11.409796714782715
aF11.406943321228027
aF11.407185554504395
aF11.40457534790039
aF11.403148651123047
aF11.40880012512207
aF11.409915924072266
aF11.40660285949707
aF11.406977653503418
aF11.4043607711792
aF11.40572452545166
aF11.402145385742188
aF11.400752067565918
aF11.399904251098633
aF11.399560928344727
aF11.396267890930176
aF11.393732070922852
aF11.389592170715332
aF11.38648796081543
aF11.379310607910156
aF11.377012252807617
aF11.370112419128418
aF11.363677978515625
aF11.360956192016602
aF11.342594146728516
aF11.344953536987305
aF11.337555885314941
aF11.318151473999023
aF11.307648658752441
aF11.294975280761719
aF11.288220405578613
aF11.279156684875488
aF11.272865295410156
aF11.25925350189209
aF11.25136947631836
aF11.24114990234375
aF11.229801177978516
aF11.21868896484375
aF11.206465721130371
aF11.199528694152832
aF11.192959785461426
aF11.187222480773926
aF11.181034088134766
aF11.160133361816406
aF11.152644157409668
aF11.14671516418457
aF11.132187843322754
aF11.128703117370605
aF11.108102798461914
aF11.100831031799316
aF11.085887908935547
aF11.081363677978516
aF11.071235656738281
aF11.057884216308594
aF11.048460960388184
aF11.030673027038574
aF11.021591186523438
aF11.008530616760254
aF11.00149917602539
aF10.99801254272461
aF10.981311798095703
aF10.97175121307373
aF10.963736534118652
aF10.953991889953613
aF10.945703506469727
aF10.9310941696167
aF10.925236701965332
aF10.920888900756836
aF10.923407554626465
aF10.935674667358398
aF10.952887535095215
aF10.959858894348145
aF10.995075225830078
aF10.99934196472168
aF10.993813514709473
aF10.981575965881348
aF10.97486686706543
aF10.959771156311035
aF10.953106880187988
aF10.941723823547363
aF10.932222366333008
aF10.93179988861084
aF10.92392635345459
aF10.925031661987305
aF10.920554161071777
aF10.913905143737793
aF10.904685974121094
aF10.90788459777832
aF10.911823272705078
aF10.925374031066895
aF10.920653343200684
aF10.910566329956055
aF10.904305458068848
aF10.895277976989746
aF10.889036178588867
aF10.888132095336914
aF10.887957572937012
aF10.876871109008789
aF10.884201049804688
aF10.87476634979248
aF10.873733520507812
aF10.871670722961426
aF10.882102012634277
aF10.899638175964355
aF10.903563499450684
aF10.917007446289062
aF10.920195579528809
aF10.929218292236328
aF10.929559707641602
aF10.956117630004883
aF10.985718727111816
aF11.011797904968262
aF11.046985626220703
aF11.103446960449219
aF11.117534637451172
aF11.148553848266602
aF11.164161682128906
aF11.20754337310791
aF11.239669799804688
aF11.244012832641602
aF11.25217056274414
aF11.268160820007324
aF11.295062065124512
aF11.308757781982422
aF11.340557098388672
aF11.35172176361084
aF11.371894836425781
aF11.40192699432373
aF11.409825325012207
aF11.432957649230957
aF11.444493293762207
aF11.45960807800293
aF11.468840599060059
aF11.479690551757812
aF11.4892578125
aF11.499281883239746
aF11.521550178527832
aF11.537912368774414
aF11.550365447998047
aF11.575666427612305
aF11.589284896850586
aF11.609830856323242
aF11.605586051940918
aF11.607542037963867
aF11.613635063171387
aF11.608402252197266
aF11.602965354919434
aF11.599339485168457
aF11.59759521484375
aF11.599199295043945
aF11.594854354858398
aF11.600146293640137
aF11.598867416381836
aF11.601511001586914
aF11.600421905517578
aF11.59550666809082
aF11.595473289489746
aF11.598112106323242
aF11.59783935546875
aF11.592063903808594
aF11.59053897857666
aF11.597582817077637
aF11.594578742980957
aF11.592177391052246
aF11.597865104675293
aF11.597074508666992
aF11.602046966552734
aF11.609969139099121
aF11.617963790893555
aF11.620415687561035
aF11.627251625061035
aF11.629335403442383
aF11.637528419494629
aF11.639801025390625
aF11.633728981018066
aF11.629985809326172
aF11.630034446716309
aF11.633079528808594
aF11.633931159973145
aF11.637306213378906
aF11.633816719055176
aF11.630072593688965
aF11.630620002746582
aF11.627223014831543
aF11.62086009979248
aF11.621439933776855
aF11.625185012817383
aF11.62291431427002
aF11.622040748596191
aF11.615138053894043
aF11.617487907409668
aF11.604540824890137
aF11.605427742004395
aF11.608233451843262
aF11.611029624938965
aF11.61103630065918
aF11.608231544494629
aF11.608238220214844
aF11.611897468566895
aF11.609091758728027
aF11.60865306854248
aF11.6054048538208
aF11.60821533203125
aF11.601755142211914
aF11.604986190795898
aF11.597624778747559
aF11.598073959350586
aF11.597650527954102
aF11.594468116760254
aF11.597700119018555
aF11.60052490234375
asba.